
OLEDSTR.elf:     file format elf32-littlearm

Sections:
Idx Name          Size      VMA       LMA       File off  Algn
  0 .isr_vector   00000188  08000000  08000000  00010000  2**0
                  CONTENTS, ALLOC, LOAD, READONLY, DATA
  1 .text         00003390  08000190  08000190  00010190  2**4
                  CONTENTS, ALLOC, LOAD, READONLY, CODE
  2 .rodata       00001550  08003520  08003520  00013520  2**2
                  CONTENTS, ALLOC, LOAD, READONLY, DATA
  3 .ARM.extab    00000000  08004a70  08004a70  00020084  2**0
                  CONTENTS
  4 .ARM          00000008  08004a70  08004a70  00014a70  2**2
                  CONTENTS, ALLOC, LOAD, READONLY, DATA
  5 .preinit_array 00000000  08004a78  08004a78  00020084  2**0
                  CONTENTS, ALLOC, LOAD, DATA
  6 .init_array   00000004  08004a78  08004a78  00014a78  2**2
                  CONTENTS, ALLOC, LOAD, DATA
  7 .fini_array   00000004  08004a7c  08004a7c  00014a7c  2**2
                  CONTENTS, ALLOC, LOAD, DATA
  8 .data         00000084  20000000  08004a80  00020000  2**2
                  CONTENTS, ALLOC, LOAD, DATA
  9 .bss          00000668  20000084  08004b04  00020084  2**2
                  ALLOC
 10 ._user_heap_stack 00000604  200006ec  08004b04  000206ec  2**0
                  ALLOC
 11 .ARM.attributes 00000030  00000000  00000000  00020084  2**0
                  CONTENTS, READONLY
 12 .comment      0000007b  00000000  00000000  000200b4  2**0
                  CONTENTS, READONLY
 13 .debug_frame  000003f0  00000000  00000000  00020130  2**2
                  CONTENTS, READONLY, DEBUGGING

Disassembly of section .text:

08000190 <__do_global_dtors_aux>:
 8000190:	b510      	push	{r4, lr}
 8000192:	4c05      	ldr	r4, [pc, #20]	; (80001a8 <__do_global_dtors_aux+0x18>)
 8000194:	7823      	ldrb	r3, [r4, #0]
 8000196:	b933      	cbnz	r3, 80001a6 <__do_global_dtors_aux+0x16>
 8000198:	4b04      	ldr	r3, [pc, #16]	; (80001ac <__do_global_dtors_aux+0x1c>)
 800019a:	b113      	cbz	r3, 80001a2 <__do_global_dtors_aux+0x12>
 800019c:	4804      	ldr	r0, [pc, #16]	; (80001b0 <__do_global_dtors_aux+0x20>)
 800019e:	f3af 8000 	nop.w
 80001a2:	2301      	movs	r3, #1
 80001a4:	7023      	strb	r3, [r4, #0]
 80001a6:	bd10      	pop	{r4, pc}
 80001a8:	20000084 	.word	0x20000084
 80001ac:	00000000 	.word	0x00000000
 80001b0:	08003508 	.word	0x08003508

080001b4 <frame_dummy>:
 80001b4:	b508      	push	{r3, lr}
 80001b6:	4b03      	ldr	r3, [pc, #12]	; (80001c4 <frame_dummy+0x10>)
 80001b8:	b11b      	cbz	r3, 80001c2 <frame_dummy+0xe>
 80001ba:	4903      	ldr	r1, [pc, #12]	; (80001c8 <frame_dummy+0x14>)
 80001bc:	4803      	ldr	r0, [pc, #12]	; (80001cc <frame_dummy+0x18>)
 80001be:	f3af 8000 	nop.w
 80001c2:	bd08      	pop	{r3, pc}
 80001c4:	00000000 	.word	0x00000000
 80001c8:	20000088 	.word	0x20000088
 80001cc:	08003508 	.word	0x08003508

080001d0 <memchr>:
 80001d0:	f001 01ff 	and.w	r1, r1, #255	; 0xff
 80001d4:	2a10      	cmp	r2, #16
 80001d6:	db2b      	blt.n	8000230 <memchr+0x60>
 80001d8:	f010 0f07 	tst.w	r0, #7
 80001dc:	d008      	beq.n	80001f0 <memchr+0x20>
 80001de:	f810 3b01 	ldrb.w	r3, [r0], #1
 80001e2:	3a01      	subs	r2, #1
 80001e4:	428b      	cmp	r3, r1
 80001e6:	d02d      	beq.n	8000244 <memchr+0x74>
 80001e8:	f010 0f07 	tst.w	r0, #7
 80001ec:	b342      	cbz	r2, 8000240 <memchr+0x70>
 80001ee:	d1f6      	bne.n	80001de <memchr+0xe>
 80001f0:	b4f0      	push	{r4, r5, r6, r7}
 80001f2:	ea41 2101 	orr.w	r1, r1, r1, lsl #8
 80001f6:	ea41 4101 	orr.w	r1, r1, r1, lsl #16
 80001fa:	f022 0407 	bic.w	r4, r2, #7
 80001fe:	f07f 0700 	mvns.w	r7, #0
 8000202:	2300      	movs	r3, #0
 8000204:	e8f0 5602 	ldrd	r5, r6, [r0], #8
 8000208:	3c08      	subs	r4, #8
 800020a:	ea85 0501 	eor.w	r5, r5, r1
 800020e:	ea86 0601 	eor.w	r6, r6, r1
 8000212:	fa85 f547 	uadd8	r5, r5, r7
 8000216:	faa3 f587 	sel	r5, r3, r7
 800021a:	fa86 f647 	uadd8	r6, r6, r7
 800021e:	faa5 f687 	sel	r6, r5, r7
 8000222:	b98e      	cbnz	r6, 8000248 <memchr+0x78>
 8000224:	d1ee      	bne.n	8000204 <memchr+0x34>
 8000226:	bcf0      	pop	{r4, r5, r6, r7}
 8000228:	f001 01ff 	and.w	r1, r1, #255	; 0xff
 800022c:	f002 0207 	and.w	r2, r2, #7
 8000230:	b132      	cbz	r2, 8000240 <memchr+0x70>
 8000232:	f810 3b01 	ldrb.w	r3, [r0], #1
 8000236:	3a01      	subs	r2, #1
 8000238:	ea83 0301 	eor.w	r3, r3, r1
 800023c:	b113      	cbz	r3, 8000244 <memchr+0x74>
 800023e:	d1f8      	bne.n	8000232 <memchr+0x62>
 8000240:	2000      	movs	r0, #0
 8000242:	4770      	bx	lr
 8000244:	3801      	subs	r0, #1
 8000246:	4770      	bx	lr
 8000248:	2d00      	cmp	r5, #0
 800024a:	bf06      	itte	eq
 800024c:	4635      	moveq	r5, r6
 800024e:	3803      	subeq	r0, #3
 8000250:	3807      	subne	r0, #7
 8000252:	f015 0f01 	tst.w	r5, #1
 8000256:	d107      	bne.n	8000268 <memchr+0x98>
 8000258:	3001      	adds	r0, #1
 800025a:	f415 7f80 	tst.w	r5, #256	; 0x100
 800025e:	bf02      	ittt	eq
 8000260:	3001      	addeq	r0, #1
 8000262:	f415 3fc0 	tsteq.w	r5, #98304	; 0x18000
 8000266:	3001      	addeq	r0, #1
 8000268:	bcf0      	pop	{r4, r5, r6, r7}
 800026a:	3801      	subs	r0, #1
 800026c:	4770      	bx	lr
 800026e:	bf00      	nop

08000270 <__aeabi_uldivmod>:
 8000270:	b953      	cbnz	r3, 8000288 <__aeabi_uldivmod+0x18>
 8000272:	b94a      	cbnz	r2, 8000288 <__aeabi_uldivmod+0x18>
 8000274:	2900      	cmp	r1, #0
 8000276:	bf08      	it	eq
 8000278:	2800      	cmpeq	r0, #0
 800027a:	bf1c      	itt	ne
 800027c:	f04f 31ff 	movne.w	r1, #4294967295
 8000280:	f04f 30ff 	movne.w	r0, #4294967295
 8000284:	f000 b972 	b.w	800056c <__aeabi_idiv0>
 8000288:	f1ad 0c08 	sub.w	ip, sp, #8
 800028c:	e96d ce04 	strd	ip, lr, [sp, #-16]!
 8000290:	f000 f806 	bl	80002a0 <__udivmoddi4>
 8000294:	f8dd e004 	ldr.w	lr, [sp, #4]
 8000298:	e9dd 2302 	ldrd	r2, r3, [sp, #8]
 800029c:	b004      	add	sp, #16
 800029e:	4770      	bx	lr

080002a0 <__udivmoddi4>:
 80002a0:	e92d 47f0 	stmdb	sp!, {r4, r5, r6, r7, r8, r9, sl, lr}
 80002a4:	9e08      	ldr	r6, [sp, #32]
 80002a6:	4604      	mov	r4, r0
 80002a8:	4688      	mov	r8, r1
 80002aa:	2b00      	cmp	r3, #0
 80002ac:	d14b      	bne.n	8000346 <__udivmoddi4+0xa6>
 80002ae:	428a      	cmp	r2, r1
 80002b0:	4615      	mov	r5, r2
 80002b2:	d967      	bls.n	8000384 <__udivmoddi4+0xe4>
 80002b4:	fab2 f282 	clz	r2, r2
 80002b8:	b14a      	cbz	r2, 80002ce <__udivmoddi4+0x2e>
 80002ba:	f1c2 0720 	rsb	r7, r2, #32
 80002be:	fa01 f302 	lsl.w	r3, r1, r2
 80002c2:	fa20 f707 	lsr.w	r7, r0, r7
 80002c6:	4095      	lsls	r5, r2
 80002c8:	ea47 0803 	orr.w	r8, r7, r3
 80002cc:	4094      	lsls	r4, r2
 80002ce:	ea4f 4e15 	mov.w	lr, r5, lsr #16
 80002d2:	0c23      	lsrs	r3, r4, #16
 80002d4:	fbb8 f7fe 	udiv	r7, r8, lr
 80002d8:	fa1f fc85 	uxth.w	ip, r5
 80002dc:	fb0e 8817 	mls	r8, lr, r7, r8
 80002e0:	ea43 4308 	orr.w	r3, r3, r8, lsl #16
 80002e4:	fb07 f10c 	mul.w	r1, r7, ip
 80002e8:	4299      	cmp	r1, r3
 80002ea:	d909      	bls.n	8000300 <__udivmoddi4+0x60>
 80002ec:	18eb      	adds	r3, r5, r3
 80002ee:	f107 30ff 	add.w	r0, r7, #4294967295
 80002f2:	f080 811b 	bcs.w	800052c <__udivmoddi4+0x28c>
 80002f6:	4299      	cmp	r1, r3
 80002f8:	f240 8118 	bls.w	800052c <__udivmoddi4+0x28c>
 80002fc:	3f02      	subs	r7, #2
 80002fe:	442b      	add	r3, r5
 8000300:	1a5b      	subs	r3, r3, r1
 8000302:	b2a4      	uxth	r4, r4
 8000304:	fbb3 f0fe 	udiv	r0, r3, lr
 8000308:	fb0e 3310 	mls	r3, lr, r0, r3
 800030c:	ea44 4403 	orr.w	r4, r4, r3, lsl #16
 8000310:	fb00 fc0c 	mul.w	ip, r0, ip
 8000314:	45a4      	cmp	ip, r4
 8000316:	d909      	bls.n	800032c <__udivmoddi4+0x8c>
 8000318:	192c      	adds	r4, r5, r4
 800031a:	f100 33ff 	add.w	r3, r0, #4294967295
 800031e:	f080 8107 	bcs.w	8000530 <__udivmoddi4+0x290>
 8000322:	45a4      	cmp	ip, r4
 8000324:	f240 8104 	bls.w	8000530 <__udivmoddi4+0x290>
 8000328:	3802      	subs	r0, #2
 800032a:	442c      	add	r4, r5
 800032c:	ea40 4007 	orr.w	r0, r0, r7, lsl #16
 8000330:	eba4 040c 	sub.w	r4, r4, ip
 8000334:	2700      	movs	r7, #0
 8000336:	b11e      	cbz	r6, 8000340 <__udivmoddi4+0xa0>
 8000338:	40d4      	lsrs	r4, r2
 800033a:	2300      	movs	r3, #0
 800033c:	e9c6 4300 	strd	r4, r3, [r6]
 8000340:	4639      	mov	r1, r7
 8000342:	e8bd 87f0 	ldmia.w	sp!, {r4, r5, r6, r7, r8, r9, sl, pc}
 8000346:	428b      	cmp	r3, r1
 8000348:	d909      	bls.n	800035e <__udivmoddi4+0xbe>
 800034a:	2e00      	cmp	r6, #0
 800034c:	f000 80eb 	beq.w	8000526 <__udivmoddi4+0x286>
 8000350:	2700      	movs	r7, #0
 8000352:	e9c6 0100 	strd	r0, r1, [r6]
 8000356:	4638      	mov	r0, r7
 8000358:	4639      	mov	r1, r7
 800035a:	e8bd 87f0 	ldmia.w	sp!, {r4, r5, r6, r7, r8, r9, sl, pc}
 800035e:	fab3 f783 	clz	r7, r3
 8000362:	2f00      	cmp	r7, #0
 8000364:	d147      	bne.n	80003f6 <__udivmoddi4+0x156>
 8000366:	428b      	cmp	r3, r1
 8000368:	d302      	bcc.n	8000370 <__udivmoddi4+0xd0>
 800036a:	4282      	cmp	r2, r0
 800036c:	f200 80fa 	bhi.w	8000564 <__udivmoddi4+0x2c4>
 8000370:	1a84      	subs	r4, r0, r2
 8000372:	eb61 0303 	sbc.w	r3, r1, r3
 8000376:	2001      	movs	r0, #1
 8000378:	4698      	mov	r8, r3
 800037a:	2e00      	cmp	r6, #0
 800037c:	d0e0      	beq.n	8000340 <__udivmoddi4+0xa0>
 800037e:	e9c6 4800 	strd	r4, r8, [r6]
 8000382:	e7dd      	b.n	8000340 <__udivmoddi4+0xa0>
 8000384:	b902      	cbnz	r2, 8000388 <__udivmoddi4+0xe8>
 8000386:	deff      	udf	#255	; 0xff
 8000388:	fab2 f282 	clz	r2, r2
 800038c:	2a00      	cmp	r2, #0
 800038e:	f040 808f 	bne.w	80004b0 <__udivmoddi4+0x210>
 8000392:	1b49      	subs	r1, r1, r5
 8000394:	ea4f 4e15 	mov.w	lr, r5, lsr #16
 8000398:	fa1f f885 	uxth.w	r8, r5
 800039c:	2701      	movs	r7, #1
 800039e:	fbb1 fcfe 	udiv	ip, r1, lr
 80003a2:	0c23      	lsrs	r3, r4, #16
 80003a4:	fb0e 111c 	mls	r1, lr, ip, r1
 80003a8:	ea43 4301 	orr.w	r3, r3, r1, lsl #16
 80003ac:	fb08 f10c 	mul.w	r1, r8, ip
 80003b0:	4299      	cmp	r1, r3
 80003b2:	d907      	bls.n	80003c4 <__udivmoddi4+0x124>
 80003b4:	18eb      	adds	r3, r5, r3
 80003b6:	f10c 30ff 	add.w	r0, ip, #4294967295
 80003ba:	d202      	bcs.n	80003c2 <__udivmoddi4+0x122>
 80003bc:	4299      	cmp	r1, r3
 80003be:	f200 80cd 	bhi.w	800055c <__udivmoddi4+0x2bc>
 80003c2:	4684      	mov	ip, r0
 80003c4:	1a59      	subs	r1, r3, r1
 80003c6:	b2a3      	uxth	r3, r4
 80003c8:	fbb1 f0fe 	udiv	r0, r1, lr
 80003cc:	fb0e 1410 	mls	r4, lr, r0, r1
 80003d0:	ea43 4404 	orr.w	r4, r3, r4, lsl #16
 80003d4:	fb08 f800 	mul.w	r8, r8, r0
 80003d8:	45a0      	cmp	r8, r4
 80003da:	d907      	bls.n	80003ec <__udivmoddi4+0x14c>
 80003dc:	192c      	adds	r4, r5, r4
 80003de:	f100 33ff 	add.w	r3, r0, #4294967295
 80003e2:	d202      	bcs.n	80003ea <__udivmoddi4+0x14a>
 80003e4:	45a0      	cmp	r8, r4
 80003e6:	f200 80b6 	bhi.w	8000556 <__udivmoddi4+0x2b6>
 80003ea:	4618      	mov	r0, r3
 80003ec:	eba4 0408 	sub.w	r4, r4, r8
 80003f0:	ea40 400c 	orr.w	r0, r0, ip, lsl #16
 80003f4:	e79f      	b.n	8000336 <__udivmoddi4+0x96>
 80003f6:	f1c7 0c20 	rsb	ip, r7, #32
 80003fa:	40bb      	lsls	r3, r7
 80003fc:	fa22 fe0c 	lsr.w	lr, r2, ip
 8000400:	ea4e 0e03 	orr.w	lr, lr, r3
 8000404:	fa01 f407 	lsl.w	r4, r1, r7
 8000408:	fa20 f50c 	lsr.w	r5, r0, ip
 800040c:	fa21 f30c 	lsr.w	r3, r1, ip
 8000410:	ea4f 481e 	mov.w	r8, lr, lsr #16
 8000414:	4325      	orrs	r5, r4
 8000416:	fbb3 f9f8 	udiv	r9, r3, r8
 800041a:	0c2c      	lsrs	r4, r5, #16
 800041c:	fb08 3319 	mls	r3, r8, r9, r3
 8000420:	fa1f fa8e 	uxth.w	sl, lr
 8000424:	ea44 4303 	orr.w	r3, r4, r3, lsl #16
 8000428:	fb09 f40a 	mul.w	r4, r9, sl
 800042c:	429c      	cmp	r4, r3
 800042e:	fa02 f207 	lsl.w	r2, r2, r7
 8000432:	fa00 f107 	lsl.w	r1, r0, r7
 8000436:	d90b      	bls.n	8000450 <__udivmoddi4+0x1b0>
 8000438:	eb1e 0303 	adds.w	r3, lr, r3
 800043c:	f109 30ff 	add.w	r0, r9, #4294967295
 8000440:	f080 8087 	bcs.w	8000552 <__udivmoddi4+0x2b2>
 8000444:	429c      	cmp	r4, r3
 8000446:	f240 8084 	bls.w	8000552 <__udivmoddi4+0x2b2>
 800044a:	f1a9 0902 	sub.w	r9, r9, #2
 800044e:	4473      	add	r3, lr
 8000450:	1b1b      	subs	r3, r3, r4
 8000452:	b2ad      	uxth	r5, r5
 8000454:	fbb3 f0f8 	udiv	r0, r3, r8
 8000458:	fb08 3310 	mls	r3, r8, r0, r3
 800045c:	ea45 4403 	orr.w	r4, r5, r3, lsl #16
 8000460:	fb00 fa0a 	mul.w	sl, r0, sl
 8000464:	45a2      	cmp	sl, r4
 8000466:	d908      	bls.n	800047a <__udivmoddi4+0x1da>
 8000468:	eb1e 0404 	adds.w	r4, lr, r4
 800046c:	f100 33ff 	add.w	r3, r0, #4294967295
 8000470:	d26b      	bcs.n	800054a <__udivmoddi4+0x2aa>
 8000472:	45a2      	cmp	sl, r4
 8000474:	d969      	bls.n	800054a <__udivmoddi4+0x2aa>
 8000476:	3802      	subs	r0, #2
 8000478:	4474      	add	r4, lr
 800047a:	ea40 4009 	orr.w	r0, r0, r9, lsl #16
 800047e:	fba0 8902 	umull	r8, r9, r0, r2
 8000482:	eba4 040a 	sub.w	r4, r4, sl
 8000486:	454c      	cmp	r4, r9
 8000488:	46c2      	mov	sl, r8
 800048a:	464b      	mov	r3, r9
 800048c:	d354      	bcc.n	8000538 <__udivmoddi4+0x298>
 800048e:	d051      	beq.n	8000534 <__udivmoddi4+0x294>
 8000490:	2e00      	cmp	r6, #0
 8000492:	d069      	beq.n	8000568 <__udivmoddi4+0x2c8>
 8000494:	ebb1 050a 	subs.w	r5, r1, sl
 8000498:	eb64 0403 	sbc.w	r4, r4, r3
 800049c:	fa04 fc0c 	lsl.w	ip, r4, ip
 80004a0:	40fd      	lsrs	r5, r7
 80004a2:	40fc      	lsrs	r4, r7
 80004a4:	ea4c 0505 	orr.w	r5, ip, r5
 80004a8:	e9c6 5400 	strd	r5, r4, [r6]
 80004ac:	2700      	movs	r7, #0
 80004ae:	e747      	b.n	8000340 <__udivmoddi4+0xa0>
 80004b0:	f1c2 0320 	rsb	r3, r2, #32
 80004b4:	fa20 f703 	lsr.w	r7, r0, r3
 80004b8:	4095      	lsls	r5, r2
 80004ba:	fa01 f002 	lsl.w	r0, r1, r2
 80004be:	fa21 f303 	lsr.w	r3, r1, r3
 80004c2:	ea4f 4e15 	mov.w	lr, r5, lsr #16
 80004c6:	4338      	orrs	r0, r7
 80004c8:	0c01      	lsrs	r1, r0, #16
 80004ca:	fbb3 f7fe 	udiv	r7, r3, lr
 80004ce:	fa1f f885 	uxth.w	r8, r5
 80004d2:	fb0e 3317 	mls	r3, lr, r7, r3
 80004d6:	ea41 4103 	orr.w	r1, r1, r3, lsl #16
 80004da:	fb07 f308 	mul.w	r3, r7, r8
 80004de:	428b      	cmp	r3, r1
 80004e0:	fa04 f402 	lsl.w	r4, r4, r2
 80004e4:	d907      	bls.n	80004f6 <__udivmoddi4+0x256>
 80004e6:	1869      	adds	r1, r5, r1
 80004e8:	f107 3cff 	add.w	ip, r7, #4294967295
 80004ec:	d22f      	bcs.n	800054e <__udivmoddi4+0x2ae>
 80004ee:	428b      	cmp	r3, r1
 80004f0:	d92d      	bls.n	800054e <__udivmoddi4+0x2ae>
 80004f2:	3f02      	subs	r7, #2
 80004f4:	4429      	add	r1, r5
 80004f6:	1acb      	subs	r3, r1, r3
 80004f8:	b281      	uxth	r1, r0
 80004fa:	fbb3 f0fe 	udiv	r0, r3, lr
 80004fe:	fb0e 3310 	mls	r3, lr, r0, r3
 8000502:	ea41 4103 	orr.w	r1, r1, r3, lsl #16
 8000506:	fb00 f308 	mul.w	r3, r0, r8
 800050a:	428b      	cmp	r3, r1
 800050c:	d907      	bls.n	800051e <__udivmoddi4+0x27e>
 800050e:	1869      	adds	r1, r5, r1
 8000510:	f100 3cff 	add.w	ip, r0, #4294967295
 8000514:	d217      	bcs.n	8000546 <__udivmoddi4+0x2a6>
 8000516:	428b      	cmp	r3, r1
 8000518:	d915      	bls.n	8000546 <__udivmoddi4+0x2a6>
 800051a:	3802      	subs	r0, #2
 800051c:	4429      	add	r1, r5
 800051e:	1ac9      	subs	r1, r1, r3
 8000520:	ea40 4707 	orr.w	r7, r0, r7, lsl #16
 8000524:	e73b      	b.n	800039e <__udivmoddi4+0xfe>
 8000526:	4637      	mov	r7, r6
 8000528:	4630      	mov	r0, r6
 800052a:	e709      	b.n	8000340 <__udivmoddi4+0xa0>
 800052c:	4607      	mov	r7, r0
 800052e:	e6e7      	b.n	8000300 <__udivmoddi4+0x60>
 8000530:	4618      	mov	r0, r3
 8000532:	e6fb      	b.n	800032c <__udivmoddi4+0x8c>
 8000534:	4541      	cmp	r1, r8
 8000536:	d2ab      	bcs.n	8000490 <__udivmoddi4+0x1f0>
 8000538:	ebb8 0a02 	subs.w	sl, r8, r2
 800053c:	eb69 020e 	sbc.w	r2, r9, lr
 8000540:	3801      	subs	r0, #1
 8000542:	4613      	mov	r3, r2
 8000544:	e7a4      	b.n	8000490 <__udivmoddi4+0x1f0>
 8000546:	4660      	mov	r0, ip
 8000548:	e7e9      	b.n	800051e <__udivmoddi4+0x27e>
 800054a:	4618      	mov	r0, r3
 800054c:	e795      	b.n	800047a <__udivmoddi4+0x1da>
 800054e:	4667      	mov	r7, ip
 8000550:	e7d1      	b.n	80004f6 <__udivmoddi4+0x256>
 8000552:	4681      	mov	r9, r0
 8000554:	e77c      	b.n	8000450 <__udivmoddi4+0x1b0>
 8000556:	3802      	subs	r0, #2
 8000558:	442c      	add	r4, r5
 800055a:	e747      	b.n	80003ec <__udivmoddi4+0x14c>
 800055c:	f1ac 0c02 	sub.w	ip, ip, #2
 8000560:	442b      	add	r3, r5
 8000562:	e72f      	b.n	80003c4 <__udivmoddi4+0x124>
 8000564:	4638      	mov	r0, r7
 8000566:	e708      	b.n	800037a <__udivmoddi4+0xda>
 8000568:	4637      	mov	r7, r6
 800056a:	e6e9      	b.n	8000340 <__udivmoddi4+0xa0>

0800056c <__aeabi_idiv0>:
 800056c:	4770      	bx	lr
 800056e:	bf00      	nop

08000570 <SystemClock_Config>:
 8000570:	b570      	push	{r4, r5, r6, lr}
 8000572:	2400      	movs	r4, #0
 8000574:	b094      	sub	sp, #80	; 0x50
 8000576:	e9cd 440b 	strd	r4, r4, [sp, #44]	; 0x2c
 800057a:	e9cd 4409 	strd	r4, r4, [sp, #36]	; 0x24
 800057e:	e9cd 4404 	strd	r4, r4, [sp, #16]
 8000582:	e9cd 4406 	strd	r4, r4, [sp, #24]
 8000586:	4a1d      	ldr	r2, [pc, #116]	; (80005fc <SystemClock_Config+0x8c>)
 8000588:	9401      	str	r4, [sp, #4]
 800058a:	940d      	str	r4, [sp, #52]	; 0x34
 800058c:	9403      	str	r4, [sp, #12]
 800058e:	6c11      	ldr	r1, [r2, #64]	; 0x40
 8000590:	4b1b      	ldr	r3, [pc, #108]	; (8000600 <SystemClock_Config+0x90>)
 8000592:	f041 5180 	orr.w	r1, r1, #268435456	; 0x10000000
 8000596:	6411      	str	r1, [r2, #64]	; 0x40
 8000598:	6c12      	ldr	r2, [r2, #64]	; 0x40
 800059a:	f002 5280 	and.w	r2, r2, #268435456	; 0x10000000
 800059e:	9201      	str	r2, [sp, #4]
 80005a0:	9a01      	ldr	r2, [sp, #4]
 80005a2:	9402      	str	r4, [sp, #8]
 80005a4:	681a      	ldr	r2, [r3, #0]
 80005a6:	f442 4280 	orr.w	r2, r2, #16384	; 0x4000
 80005aa:	601a      	str	r2, [r3, #0]
 80005ac:	681b      	ldr	r3, [r3, #0]
 80005ae:	940f      	str	r4, [sp, #60]	; 0x3c
 80005b0:	f403 4380 	and.w	r3, r3, #16384	; 0x4000
 80005b4:	9302      	str	r3, [sp, #8]
 80005b6:	2201      	movs	r2, #1
 80005b8:	2310      	movs	r3, #16
 80005ba:	2502      	movs	r5, #2
 80005bc:	2108      	movs	r1, #8
 80005be:	9802      	ldr	r0, [sp, #8]
 80005c0:	920b      	str	r2, [sp, #44]	; 0x2c
 80005c2:	930c      	str	r3, [sp, #48]	; 0x30
 80005c4:	22a8      	movs	r2, #168	; 0xa8
 80005c6:	2304      	movs	r3, #4
 80005c8:	a808      	add	r0, sp, #32
 80005ca:	9110      	str	r1, [sp, #64]	; 0x40
 80005cc:	9211      	str	r2, [sp, #68]	; 0x44
 80005ce:	9313      	str	r3, [sp, #76]	; 0x4c
 80005d0:	9508      	str	r5, [sp, #32]
 80005d2:	950e      	str	r5, [sp, #56]	; 0x38
 80005d4:	9512      	str	r5, [sp, #72]	; 0x48
 80005d6:	260f      	movs	r6, #15
 80005d8:	f001 fd96 	bl	8002108 <HAL_RCC_OscConfig>
 80005dc:	f44f 52a0 	mov.w	r2, #5120	; 0x1400
 80005e0:	f44f 5380 	mov.w	r3, #4096	; 0x1000
 80005e4:	a803      	add	r0, sp, #12
 80005e6:	2105      	movs	r1, #5
 80005e8:	9504      	str	r5, [sp, #16]
 80005ea:	9405      	str	r4, [sp, #20]
 80005ec:	9603      	str	r6, [sp, #12]
 80005ee:	e9cd 2306 	strd	r2, r3, [sp, #24]
 80005f2:	f001 ff9d 	bl	8002530 <HAL_RCC_ClockConfig>
 80005f6:	b014      	add	sp, #80	; 0x50
 80005f8:	bd70      	pop	{r4, r5, r6, pc}
 80005fa:	bf00      	nop
 80005fc:	40023800 	.word	0x40023800
 8000600:	40007000 	.word	0x40007000

08000604 <main>:
 8000604:	e92d 4ff0 	stmdb	sp!, {r4, r5, r6, r7, r8, r9, sl, fp, lr}
 8000608:	2600      	movs	r6, #0
 800060a:	b08f      	sub	sp, #60	; 0x3c
 800060c:	f000 fe42 	bl	8001294 <HAL_Init>
 8000610:	f7ff ffae 	bl	8000570 <SystemClock_Config>
 8000614:	e9cd 6609 	strd	r6, r6, [sp, #36]	; 0x24
 8000618:	e9cd 660b 	strd	r6, r6, [sp, #44]	; 0x2c
 800061c:	4bc3      	ldr	r3, [pc, #780]	; (800092c <main+0x328>)
 800061e:	9600      	str	r6, [sp, #0]
 8000620:	960d      	str	r6, [sp, #52]	; 0x34
 8000622:	6b1a      	ldr	r2, [r3, #48]	; 0x30
 8000624:	48c2      	ldr	r0, [pc, #776]	; (8000930 <main+0x32c>)
 8000626:	4cc3      	ldr	r4, [pc, #780]	; (8000934 <main+0x330>)
 8000628:	4fc3      	ldr	r7, [pc, #780]	; (8000938 <main+0x334>)
 800062a:	4dc4      	ldr	r5, [pc, #784]	; (800093c <main+0x338>)
 800062c:	f8df a364 	ldr.w	sl, [pc, #868]	; 8000994 <main+0x390>
 8000630:	f042 0204 	orr.w	r2, r2, #4
 8000634:	631a      	str	r2, [r3, #48]	; 0x30
 8000636:	6b1a      	ldr	r2, [r3, #48]	; 0x30
 8000638:	f002 0204 	and.w	r2, r2, #4
 800063c:	9200      	str	r2, [sp, #0]
 800063e:	9a00      	ldr	r2, [sp, #0]
 8000640:	9601      	str	r6, [sp, #4]
 8000642:	6b1a      	ldr	r2, [r3, #48]	; 0x30
 8000644:	f042 0201 	orr.w	r2, r2, #1
 8000648:	631a      	str	r2, [r3, #48]	; 0x30
 800064a:	6b1a      	ldr	r2, [r3, #48]	; 0x30
 800064c:	f002 0201 	and.w	r2, r2, #1
 8000650:	9201      	str	r2, [sp, #4]
 8000652:	9a01      	ldr	r2, [sp, #4]
 8000654:	9602      	str	r6, [sp, #8]
 8000656:	6b1a      	ldr	r2, [r3, #48]	; 0x30
 8000658:	f042 0202 	orr.w	r2, r2, #2
 800065c:	631a      	str	r2, [r3, #48]	; 0x30
 800065e:	6b1b      	ldr	r3, [r3, #48]	; 0x30
 8000660:	f003 0302 	and.w	r3, r3, #2
 8000664:	4632      	mov	r2, r6
 8000666:	9302      	str	r3, [sp, #8]
 8000668:	f44f 5100 	mov.w	r1, #8192	; 0x2000
 800066c:	f04f 0b01 	mov.w	fp, #1
 8000670:	9b02      	ldr	r3, [sp, #8]
 8000672:	f001 f9f5 	bl	8001a60 <HAL_GPIO_WritePin>
 8000676:	f44f 5300 	mov.w	r3, #8192	; 0x2000
 800067a:	a909      	add	r1, sp, #36	; 0x24
 800067c:	48ac      	ldr	r0, [pc, #688]	; (8000930 <main+0x32c>)
 800067e:	e9cd 3b09 	strd	r3, fp, [sp, #36]	; 0x24
 8000682:	e9cd 660b 	strd	r6, r6, [sp, #44]	; 0x2c
 8000686:	f001 f8e7 	bl	8001858 <HAL_GPIO_Init>
 800068a:	48ad      	ldr	r0, [pc, #692]	; (8000940 <main+0x33c>)
 800068c:	6020      	str	r0, [r4, #0]
 800068e:	2103      	movs	r1, #3
 8000690:	f44f 2220 	mov.w	r2, #655360	; 0xa0000
 8000694:	f44f 1380 	mov.w	r3, #1048576	; 0x100000
 8000698:	4620      	mov	r0, r4
 800069a:	e9c4 2304 	strd	r2, r3, [r4, #16]
 800069e:	6061      	str	r1, [r4, #4]
 80006a0:	60a6      	str	r6, [r4, #8]
 80006a2:	60e6      	str	r6, [r4, #12]
 80006a4:	61a6      	str	r6, [r4, #24]
 80006a6:	7726      	strb	r6, [r4, #28]
 80006a8:	7766      	strb	r6, [r4, #29]
 80006aa:	f000 fe31 	bl	8001310 <HAL_CAN_Init>
 80006ae:	2278      	movs	r2, #120	; 0x78
 80006b0:	f04f 4180 	mov.w	r1, #1073741824	; 0x40000000
 80006b4:	f64f 73ff 	movw	r3, #65535	; 0xffff
 80006b8:	4638      	mov	r0, r7
 80006ba:	e9c7 1200 	strd	r1, r2, [r7]
 80006be:	f04f 0804 	mov.w	r8, #4
 80006c2:	f04f 0902 	mov.w	r9, #2
 80006c6:	60fb      	str	r3, [r7, #12]
 80006c8:	60be      	str	r6, [r7, #8]
 80006ca:	613e      	str	r6, [r7, #16]
 80006cc:	61be      	str	r6, [r7, #24]
 80006ce:	e9cd 6609 	strd	r6, r6, [sp, #36]	; 0x24
 80006d2:	e9cd 660b 	strd	r6, r6, [sp, #44]	; 0x2c
 80006d6:	960d      	str	r6, [sp, #52]	; 0x34
 80006d8:	9605      	str	r6, [sp, #20]
 80006da:	9603      	str	r6, [sp, #12]
 80006dc:	e9cd 6606 	strd	r6, r6, [sp, #24]
 80006e0:	9608      	str	r6, [sp, #32]
 80006e2:	9604      	str	r6, [sp, #16]
 80006e4:	f001 fffc 	bl	80026e0 <HAL_TIM_IC_Init>
 80006e8:	2350      	movs	r3, #80	; 0x50
 80006ea:	a909      	add	r1, sp, #36	; 0x24
 80006ec:	4638      	mov	r0, r7
 80006ee:	e9cd 8309 	strd	r8, r3, [sp, #36]	; 0x24
 80006f2:	f8cd 902c 	str.w	r9, [sp, #44]	; 0x2c
 80006f6:	e9cd 660c 	strd	r6, r6, [sp, #48]	; 0x30
 80006fa:	f002 f93b 	bl	8002974 <HAL_TIM_SlaveConfigSynchro>
 80006fe:	4632      	mov	r2, r6
 8000700:	a905      	add	r1, sp, #20
 8000702:	4638      	mov	r0, r7
 8000704:	e9cd 9b05 	strd	r9, fp, [sp, #20]
 8000708:	e9cd 6607 	strd	r6, r6, [sp, #28]
 800070c:	f002 f86c 	bl	80027e8 <HAL_TIM_IC_ConfigChannel>
 8000710:	4642      	mov	r2, r8
 8000712:	a905      	add	r1, sp, #20
 8000714:	4638      	mov	r0, r7
 8000716:	e9cd 6905 	strd	r6, r9, [sp, #20]
 800071a:	f002 f865 	bl	80027e8 <HAL_TIM_IC_ConfigChannel>
 800071e:	a903      	add	r1, sp, #12
 8000720:	4638      	mov	r0, r7
 8000722:	e9cd 6603 	strd	r6, r6, [sp, #12]
 8000726:	f002 fa6d 	bl	8002c04 <HAL_TIMEx_MasterConfigSynchronization>
 800072a:	4b86      	ldr	r3, [pc, #536]	; (8000944 <main+0x340>)
 800072c:	f8df c268 	ldr.w	ip, [pc, #616]	; 8000998 <main+0x394>
 8000730:	4985      	ldr	r1, [pc, #532]	; (8000948 <main+0x344>)
 8000732:	609e      	str	r6, [r3, #8]
 8000734:	f44f 4280 	mov.w	r2, #16384	; 0x4000
 8000738:	4618      	mov	r0, r3
 800073a:	e9c3 c100 	strd	ip, r1, [r3]
 800073e:	611a      	str	r2, [r3, #16]
 8000740:	60de      	str	r6, [r3, #12]
 8000742:	e9c3 6605 	strd	r6, r6, [r3, #20]
 8000746:	e9c3 6607 	strd	r6, r6, [r3, #28]
 800074a:	f001 f995 	bl	8001a78 <HAL_I2C_Init>
 800074e:	4631      	mov	r1, r6
 8000750:	4638      	mov	r0, r7
 8000752:	f001 ff9b 	bl	800268c <HAL_TIM_PWM_Start>
 8000756:	4641      	mov	r1, r8
 8000758:	4638      	mov	r0, r7
 800075a:	f001 ff97 	bl	800268c <HAL_TIM_PWM_Start>
 800075e:	200a      	movs	r0, #10
 8000760:	f000 fdc4 	bl	80012ec <HAL_Delay>
 8000764:	f000 f946 	bl	80009f4 <SSD1306_Init>
 8000768:	220e      	movs	r2, #14
 800076a:	f24f 63c0 	movw	r3, #63168	; 0xf6c0
 800076e:	4629      	mov	r1, r5
 8000770:	4620      	mov	r0, r4
 8000772:	626a      	str	r2, [r5, #36]	; 0x24
 8000774:	e9c5 6b06 	strd	r6, fp, [r5, #24]
 8000778:	f8c5 b020 	str.w	fp, [r5, #32]
 800077c:	602b      	str	r3, [r5, #0]
 800077e:	60ab      	str	r3, [r5, #8]
 8000780:	606e      	str	r6, [r5, #4]
 8000782:	e9c5 6603 	strd	r6, r6, [r5, #12]
 8000786:	616e      	str	r6, [r5, #20]
 8000788:	f000 fe44 	bl	8001414 <HAL_CAN_ConfigFilter>
 800078c:	f24a 43e0 	movw	r3, #42208	; 0xa4e0
 8000790:	4629      	mov	r1, r5
 8000792:	4620      	mov	r0, r4
 8000794:	f8c5 b014 	str.w	fp, [r5, #20]
 8000798:	602b      	str	r3, [r5, #0]
 800079a:	60ab      	str	r3, [r5, #8]
 800079c:	f000 fe3a 	bl	8001414 <HAL_CAN_ConfigFilter>
 80007a0:	f44f 4379 	mov.w	r3, #63744	; 0xf900
 80007a4:	4629      	mov	r1, r5
 80007a6:	4620      	mov	r0, r4
 80007a8:	602b      	str	r3, [r5, #0]
 80007aa:	60ab      	str	r3, [r5, #8]
 80007ac:	f8c5 b014 	str.w	fp, [r5, #20]
 80007b0:	f000 fe30 	bl	8001414 <HAL_CAN_ConfigFilter>
 80007b4:	4620      	mov	r0, r4
 80007b6:	f000 feb3 	bl	8001520 <HAL_CAN_Start>
 80007ba:	f000 fd91 	bl	80012e0 <HAL_GetTick>
 80007be:	f8df 91dc 	ldr.w	r9, [pc, #476]	; 800099c <main+0x398>
 80007c2:	f8df 81dc 	ldr.w	r8, [pc, #476]	; 80009a0 <main+0x39c>
 80007c6:	f8c9 0000 	str.w	r0, [r9]
 80007ca:	f000 fbcb 	bl	8000f64 <SSD1306_Clear>
 80007ce:	4631      	mov	r1, r6
 80007d0:	2005      	movs	r0, #5
 80007d2:	f000 fae5 	bl	8000da0 <SSD1306_GotoXY>
 80007d6:	465a      	mov	r2, fp
 80007d8:	495c      	ldr	r1, [pc, #368]	; (800094c <main+0x348>)
 80007da:	485d      	ldr	r0, [pc, #372]	; (8000950 <main+0x34c>)
 80007dc:	4d5d      	ldr	r5, [pc, #372]	; (8000954 <main+0x350>)
 80007de:	4f5e      	ldr	r7, [pc, #376]	; (8000958 <main+0x354>)
 80007e0:	f000 fae4 	bl	8000dac <SSD1306_Puts>
 80007e4:	4631      	mov	r1, r6
 80007e6:	2041      	movs	r0, #65	; 0x41
 80007e8:	f000 fada 	bl	8000da0 <SSD1306_GotoXY>
 80007ec:	465a      	mov	r2, fp
 80007ee:	4957      	ldr	r1, [pc, #348]	; (800094c <main+0x348>)
 80007f0:	485a      	ldr	r0, [pc, #360]	; (800095c <main+0x358>)
 80007f2:	f000 fadb 	bl	8000dac <SSD1306_Puts>
 80007f6:	2121      	movs	r1, #33	; 0x21
 80007f8:	200a      	movs	r0, #10
 80007fa:	f000 fad1 	bl	8000da0 <SSD1306_GotoXY>
 80007fe:	465a      	mov	r2, fp
 8000800:	4952      	ldr	r1, [pc, #328]	; (800094c <main+0x348>)
 8000802:	4857      	ldr	r0, [pc, #348]	; (8000960 <main+0x35c>)
 8000804:	f000 fad2 	bl	8000dac <SSD1306_Puts>
 8000808:	2121      	movs	r1, #33	; 0x21
 800080a:	2041      	movs	r0, #65	; 0x41
 800080c:	f000 fac8 	bl	8000da0 <SSD1306_GotoXY>
 8000810:	465a      	mov	r2, fp
 8000812:	494e      	ldr	r1, [pc, #312]	; (800094c <main+0x348>)
 8000814:	4853      	ldr	r0, [pc, #332]	; (8000964 <main+0x360>)
 8000816:	f8df b118 	ldr.w	fp, [pc, #280]	; 8000930 <main+0x32c>
 800081a:	f000 fac7 	bl	8000dac <SSD1306_Puts>
 800081e:	f000 fa87 	bl	8000d30 <SSD1306_UpdateScreen>
 8000822:	2100      	movs	r1, #0
 8000824:	4844      	ldr	r0, [pc, #272]	; (8000938 <main+0x334>)
 8000826:	f002 f91f 	bl	8002a68 <HAL_TIM_ReadCapturedValue>
 800082a:	f8ca 0000 	str.w	r0, [sl]
 800082e:	2800      	cmp	r0, #0
 8000830:	d16c      	bne.n	800090c <main+0x308>
 8000832:	f8a8 0000 	strh.w	r0, [r8]
 8000836:	2100      	movs	r1, #0
 8000838:	4620      	mov	r0, r4
 800083a:	f000 ff8b 	bl	8001754 <HAL_CAN_GetRxFifoFillLevel>
 800083e:	4b4a      	ldr	r3, [pc, #296]	; (8000968 <main+0x364>)
 8000840:	4a4a      	ldr	r2, [pc, #296]	; (800096c <main+0x368>)
 8000842:	2100      	movs	r1, #0
 8000844:	4620      	mov	r0, r4
 8000846:	f000 ff05 	bl	8001654 <HAL_CAN_GetRxMessage>
 800084a:	f8b8 0000 	ldrh.w	r0, [r8]
 800084e:	7038      	strb	r0, [r7, #0]
 8000850:	f3c0 2c07 	ubfx	ip, r0, #8, #8
 8000854:	2045      	movs	r0, #69	; 0x45
 8000856:	f887 c001 	strb.w	ip, [r7, #1]
 800085a:	6028      	str	r0, [r5, #0]
 800085c:	f04f 0c02 	mov.w	ip, #2
 8000860:	4b43      	ldr	r3, [pc, #268]	; (8000970 <main+0x36c>)
 8000862:	4a3d      	ldr	r2, [pc, #244]	; (8000958 <main+0x354>)
 8000864:	493b      	ldr	r1, [pc, #236]	; (8000954 <main+0x350>)
 8000866:	60ee      	str	r6, [r5, #12]
 8000868:	4620      	mov	r0, r4
 800086a:	60ae      	str	r6, [r5, #8]
 800086c:	752e      	strb	r6, [r5, #20]
 800086e:	f8c5 c010 	str.w	ip, [r5, #16]
 8000872:	f000 fe83 	bl	800157c <HAL_CAN_AddTxMessage>
 8000876:	4620      	mov	r0, r4
 8000878:	f000 fed8 	bl	800162c <HAL_CAN_GetTxMailboxesFreeLevel>
 800087c:	2803      	cmp	r0, #3
 800087e:	d1fa      	bne.n	8000876 <main+0x272>
 8000880:	f000 fd2e 	bl	80012e0 <HAL_GetTick>
 8000884:	f8d9 3000 	ldr.w	r3, [r9]
 8000888:	1ac0      	subs	r0, r0, r3
 800088a:	2864      	cmp	r0, #100	; 0x64
 800088c:	d93a      	bls.n	8000904 <main+0x300>
 800088e:	210c      	movs	r1, #12
 8000890:	2005      	movs	r0, #5
 8000892:	f000 fa85 	bl	8000da0 <SSD1306_GotoXY>
 8000896:	4b37      	ldr	r3, [pc, #220]	; (8000974 <main+0x370>)
 8000898:	4937      	ldr	r1, [pc, #220]	; (8000978 <main+0x374>)
 800089a:	881a      	ldrh	r2, [r3, #0]
 800089c:	4837      	ldr	r0, [pc, #220]	; (800097c <main+0x378>)
 800089e:	f002 fa2d 	bl	8002cfc <siprintf>
 80008a2:	2201      	movs	r2, #1
 80008a4:	4936      	ldr	r1, [pc, #216]	; (8000980 <main+0x37c>)
 80008a6:	4835      	ldr	r0, [pc, #212]	; (800097c <main+0x378>)
 80008a8:	f000 fa80 	bl	8000dac <SSD1306_Puts>
 80008ac:	2201      	movs	r2, #1
 80008ae:	4934      	ldr	r1, [pc, #208]	; (8000980 <main+0x37c>)
 80008b0:	4834      	ldr	r0, [pc, #208]	; (8000984 <main+0x380>)
 80008b2:	f000 fa7b 	bl	8000dac <SSD1306_Puts>
 80008b6:	210c      	movs	r1, #12
 80008b8:	2041      	movs	r0, #65	; 0x41
 80008ba:	f000 fa71 	bl	8000da0 <SSD1306_GotoXY>
 80008be:	2201      	movs	r2, #1
 80008c0:	492f      	ldr	r1, [pc, #188]	; (8000980 <main+0x37c>)
 80008c2:	4831      	ldr	r0, [pc, #196]	; (8000988 <main+0x384>)
 80008c4:	f000 fa72 	bl	8000dac <SSD1306_Puts>
 80008c8:	212d      	movs	r1, #45	; 0x2d
 80008ca:	200a      	movs	r0, #10
 80008cc:	f000 fa68 	bl	8000da0 <SSD1306_GotoXY>
 80008d0:	2201      	movs	r2, #1
 80008d2:	492b      	ldr	r1, [pc, #172]	; (8000980 <main+0x37c>)
 80008d4:	482d      	ldr	r0, [pc, #180]	; (800098c <main+0x388>)
 80008d6:	f000 fa69 	bl	8000dac <SSD1306_Puts>
 80008da:	212d      	movs	r1, #45	; 0x2d
 80008dc:	2041      	movs	r0, #65	; 0x41
 80008de:	f000 fa5f 	bl	8000da0 <SSD1306_GotoXY>
 80008e2:	2201      	movs	r2, #1
 80008e4:	4926      	ldr	r1, [pc, #152]	; (8000980 <main+0x37c>)
 80008e6:	482a      	ldr	r0, [pc, #168]	; (8000990 <main+0x38c>)
 80008e8:	f000 fa60 	bl	8000dac <SSD1306_Puts>
 80008ec:	f000 fa20 	bl	8000d30 <SSD1306_UpdateScreen>
 80008f0:	f000 fcf6 	bl	80012e0 <HAL_GetTick>
 80008f4:	f8c9 0000 	str.w	r0, [r9]
 80008f8:	f44f 5100 	mov.w	r1, #8192	; 0x2000
 80008fc:	4658      	mov	r0, fp
 80008fe:	f001 f8b3 	bl	8001a68 <HAL_GPIO_TogglePin>
 8000902:	e78e      	b.n	8000822 <main+0x21e>
 8000904:	2004      	movs	r0, #4
 8000906:	f000 fcf1 	bl	80012ec <HAL_Delay>
 800090a:	e7f5      	b.n	80008f8 <main+0x2f4>
 800090c:	2104      	movs	r1, #4
 800090e:	480a      	ldr	r0, [pc, #40]	; (8000938 <main+0x334>)
 8000910:	f002 f8aa 	bl	8002a68 <HAL_TIM_ReadCapturedValue>
 8000914:	f44f 73b4 	mov.w	r3, #360	; 0x168
 8000918:	fb03 f300 	mul.w	r3, r3, r0
 800091c:	f8da 0000 	ldr.w	r0, [sl]
 8000920:	fbb3 f3f0 	udiv	r3, r3, r0
 8000924:	f8a8 3000 	strh.w	r3, [r8]
 8000928:	e785      	b.n	8000836 <main+0x232>
 800092a:	bf00      	nop
 800092c:	40023800 	.word	0x40023800
 8000930:	40020800 	.word	0x40020800
 8000934:	20000648 	.word	0x20000648
 8000938:	20000608 	.word	0x20000608
 800093c:	200004c0 	.word	0x200004c0
 8000940:	40006400 	.word	0x40006400
 8000944:	20000590 	.word	0x20000590
 8000948:	00186a00 	.word	0x00186a00
 800094c:	20000008 	.word	0x20000008
 8000950:	080049e8 	.word	0x080049e8
 8000954:	20000670 	.word	0x20000670
 8000958:	200005f8 	.word	0x200005f8
 800095c:	080049f0 	.word	0x080049f0
 8000960:	080049fc 	.word	0x080049fc
 8000964:	08004a04 	.word	0x08004a04
 8000968:	20000600 	.word	0x20000600
 800096c:	20000688 	.word	0x20000688
 8000970:	200005fc 	.word	0x200005fc
 8000974:	20000010 	.word	0x20000010
 8000978:	08004a0c 	.word	0x08004a0c
 800097c:	200004e8 	.word	0x200004e8
 8000980:	20000000 	.word	0x20000000
 8000984:	08004a14 	.word	0x08004a14
 8000988:	08004a10 	.word	0x08004a10
 800098c:	08004a18 	.word	0x08004a18
 8000990:	08004a1c 	.word	0x08004a1c
 8000994:	200000a0 	.word	0x200000a0
 8000998:	40005400 	.word	0x40005400
 800099c:	200000a8 	.word	0x200000a8
 80009a0:	200000a4 	.word	0x200000a4

080009a4 <ssd1306_I2C_WriteMulti.constprop.2>:
 80009a4:	b510      	push	{r4, lr}
 80009a6:	b0c2      	sub	sp, #264	; 0x108
 80009a8:	7801      	ldrb	r1, [r0, #0]
 80009aa:	7842      	ldrb	r2, [r0, #1]
 80009ac:	7883      	ldrb	r3, [r0, #2]
 80009ae:	f88d 1009 	strb.w	r1, [sp, #9]
 80009b2:	2140      	movs	r1, #64	; 0x40
 80009b4:	f88d 200a 	strb.w	r2, [sp, #10]
 80009b8:	f88d 300b 	strb.w	r3, [sp, #11]
 80009bc:	f88d 1008 	strb.w	r1, [sp, #8]
 80009c0:	1cc3      	adds	r3, r0, #3
 80009c2:	f100 047f 	add.w	r4, r0, #127	; 0x7f
 80009c6:	aa03      	add	r2, sp, #12
 80009c8:	f853 1b04 	ldr.w	r1, [r3], #4
 80009cc:	f842 1b04 	str.w	r1, [r2], #4
 80009d0:	429c      	cmp	r4, r3
 80009d2:	d1f9      	bne.n	80009c8 <ssd1306_I2C_WriteMulti.constprop.2+0x24>
 80009d4:	230a      	movs	r3, #10
 80009d6:	f890 407f 	ldrb.w	r4, [r0, #127]	; 0x7f
 80009da:	9300      	str	r3, [sp, #0]
 80009dc:	aa02      	add	r2, sp, #8
 80009de:	2381      	movs	r3, #129	; 0x81
 80009e0:	2178      	movs	r1, #120	; 0x78
 80009e2:	4803      	ldr	r0, [pc, #12]	; (80009f0 <ssd1306_I2C_WriteMulti.constprop.2+0x4c>)
 80009e4:	f88d 4088 	strb.w	r4, [sp, #136]	; 0x88
 80009e8:	f001 f906 	bl	8001bf8 <HAL_I2C_Master_Transmit>
 80009ec:	b042      	add	sp, #264	; 0x108
 80009ee:	bd10      	pop	{r4, pc}
 80009f0:	20000590 	.word	0x20000590

080009f4 <SSD1306_Init>:
 80009f4:	e92d 43f0 	stmdb	sp!, {r4, r5, r6, r7, r8, r9, lr}
 80009f8:	f644 6320 	movw	r3, #20000	; 0x4e20
 80009fc:	b0c3      	sub	sp, #268	; 0x10c
 80009fe:	2201      	movs	r2, #1
 8000a00:	2178      	movs	r1, #120	; 0x78
 8000a02:	48c8      	ldr	r0, [pc, #800]	; (8000d24 <SSD1306_Init+0x330>)
 8000a04:	f001 fa78 	bl	8001ef8 <HAL_I2C_IsDeviceReady>
 8000a08:	b118      	cbz	r0, 8000a12 <SSD1306_Init+0x1e>
 8000a0a:	2000      	movs	r0, #0
 8000a0c:	b043      	add	sp, #268	; 0x10c
 8000a0e:	e8bd 83f0 	ldmia.w	sp!, {r4, r5, r6, r7, r8, r9, pc}
 8000a12:	240a      	movs	r4, #10
 8000a14:	4605      	mov	r5, r0
 8000a16:	f44f 462e 	mov.w	r6, #44544	; 0xae00
 8000a1a:	aa02      	add	r2, sp, #8
 8000a1c:	9400      	str	r4, [sp, #0]
 8000a1e:	2302      	movs	r3, #2
 8000a20:	2178      	movs	r1, #120	; 0x78
 8000a22:	48c0      	ldr	r0, [pc, #768]	; (8000d24 <SSD1306_Init+0x330>)
 8000a24:	f8ad 6008 	strh.w	r6, [sp, #8]
 8000a28:	f001 f8e6 	bl	8001bf8 <HAL_I2C_Master_Transmit>
 8000a2c:	f44f 5600 	mov.w	r6, #8192	; 0x2000
 8000a30:	9400      	str	r4, [sp, #0]
 8000a32:	aa02      	add	r2, sp, #8
 8000a34:	2302      	movs	r3, #2
 8000a36:	2178      	movs	r1, #120	; 0x78
 8000a38:	48ba      	ldr	r0, [pc, #744]	; (8000d24 <SSD1306_Init+0x330>)
 8000a3a:	f8ad 6008 	strh.w	r6, [sp, #8]
 8000a3e:	f44f 5780 	mov.w	r7, #4096	; 0x1000
 8000a42:	f001 f8d9 	bl	8001bf8 <HAL_I2C_Master_Transmit>
 8000a46:	9400      	str	r4, [sp, #0]
 8000a48:	aa02      	add	r2, sp, #8
 8000a4a:	2302      	movs	r3, #2
 8000a4c:	2178      	movs	r1, #120	; 0x78
 8000a4e:	48b5      	ldr	r0, [pc, #724]	; (8000d24 <SSD1306_Init+0x330>)
 8000a50:	f8ad 7008 	strh.w	r7, [sp, #8]
 8000a54:	f001 f8d0 	bl	8001bf8 <HAL_I2C_Master_Transmit>
 8000a58:	f44f 4c30 	mov.w	ip, #45056	; 0xb000
 8000a5c:	9400      	str	r4, [sp, #0]
 8000a5e:	aa02      	add	r2, sp, #8
 8000a60:	2302      	movs	r3, #2
 8000a62:	2178      	movs	r1, #120	; 0x78
 8000a64:	48af      	ldr	r0, [pc, #700]	; (8000d24 <SSD1306_Init+0x330>)
 8000a66:	f8ad c008 	strh.w	ip, [sp, #8]
 8000a6a:	f001 f8c5 	bl	8001bf8 <HAL_I2C_Master_Transmit>
 8000a6e:	f44f 4c48 	mov.w	ip, #51200	; 0xc800
 8000a72:	9400      	str	r4, [sp, #0]
 8000a74:	aa02      	add	r2, sp, #8
 8000a76:	2302      	movs	r3, #2
 8000a78:	2178      	movs	r1, #120	; 0x78
 8000a7a:	48aa      	ldr	r0, [pc, #680]	; (8000d24 <SSD1306_Init+0x330>)
 8000a7c:	f8ad c008 	strh.w	ip, [sp, #8]
 8000a80:	f001 f8ba 	bl	8001bf8 <HAL_I2C_Master_Transmit>
 8000a84:	9400      	str	r4, [sp, #0]
 8000a86:	aa02      	add	r2, sp, #8
 8000a88:	2302      	movs	r3, #2
 8000a8a:	2178      	movs	r1, #120	; 0x78
 8000a8c:	48a5      	ldr	r0, [pc, #660]	; (8000d24 <SSD1306_Init+0x330>)
 8000a8e:	f8ad 5008 	strh.w	r5, [sp, #8]
 8000a92:	f001 f8b1 	bl	8001bf8 <HAL_I2C_Master_Transmit>
 8000a96:	9400      	str	r4, [sp, #0]
 8000a98:	aa02      	add	r2, sp, #8
 8000a9a:	2302      	movs	r3, #2
 8000a9c:	2178      	movs	r1, #120	; 0x78
 8000a9e:	48a1      	ldr	r0, [pc, #644]	; (8000d24 <SSD1306_Init+0x330>)
 8000aa0:	f8ad 7008 	strh.w	r7, [sp, #8]
 8000aa4:	f001 f8a8 	bl	8001bf8 <HAL_I2C_Master_Transmit>
 8000aa8:	f44f 4780 	mov.w	r7, #16384	; 0x4000
 8000aac:	9400      	str	r4, [sp, #0]
 8000aae:	aa02      	add	r2, sp, #8
 8000ab0:	2302      	movs	r3, #2
 8000ab2:	2178      	movs	r1, #120	; 0x78
 8000ab4:	489b      	ldr	r0, [pc, #620]	; (8000d24 <SSD1306_Init+0x330>)
 8000ab6:	f8ad 7008 	strh.w	r7, [sp, #8]
 8000aba:	f001 f89d 	bl	8001bf8 <HAL_I2C_Master_Transmit>
 8000abe:	f44f 4701 	mov.w	r7, #33024	; 0x8100
 8000ac2:	9400      	str	r4, [sp, #0]
 8000ac4:	aa02      	add	r2, sp, #8
 8000ac6:	2302      	movs	r3, #2
 8000ac8:	2178      	movs	r1, #120	; 0x78
 8000aca:	4896      	ldr	r0, [pc, #600]	; (8000d24 <SSD1306_Init+0x330>)
 8000acc:	f8ad 7008 	strh.w	r7, [sp, #8]
 8000ad0:	f001 f892 	bl	8001bf8 <HAL_I2C_Master_Transmit>
 8000ad4:	f44f 477f 	mov.w	r7, #65280	; 0xff00
 8000ad8:	9400      	str	r4, [sp, #0]
 8000ada:	aa02      	add	r2, sp, #8
 8000adc:	2302      	movs	r3, #2
 8000ade:	2178      	movs	r1, #120	; 0x78
 8000ae0:	4890      	ldr	r0, [pc, #576]	; (8000d24 <SSD1306_Init+0x330>)
 8000ae2:	f8ad 7008 	strh.w	r7, [sp, #8]
 8000ae6:	f001 f887 	bl	8001bf8 <HAL_I2C_Master_Transmit>
 8000aea:	f44f 4721 	mov.w	r7, #41216	; 0xa100
 8000aee:	9400      	str	r4, [sp, #0]
 8000af0:	aa02      	add	r2, sp, #8
 8000af2:	2302      	movs	r3, #2
 8000af4:	2178      	movs	r1, #120	; 0x78
 8000af6:	488b      	ldr	r0, [pc, #556]	; (8000d24 <SSD1306_Init+0x330>)
 8000af8:	f8ad 7008 	strh.w	r7, [sp, #8]
 8000afc:	f001 f87c 	bl	8001bf8 <HAL_I2C_Master_Transmit>
 8000b00:	f44f 4726 	mov.w	r7, #42496	; 0xa600
 8000b04:	9400      	str	r4, [sp, #0]
 8000b06:	aa02      	add	r2, sp, #8
 8000b08:	2302      	movs	r3, #2
 8000b0a:	2178      	movs	r1, #120	; 0x78
 8000b0c:	4885      	ldr	r0, [pc, #532]	; (8000d24 <SSD1306_Init+0x330>)
 8000b0e:	f8ad 7008 	strh.w	r7, [sp, #8]
 8000b12:	f001 f871 	bl	8001bf8 <HAL_I2C_Master_Transmit>
 8000b16:	f44f 4728 	mov.w	r7, #43008	; 0xa800
 8000b1a:	9400      	str	r4, [sp, #0]
 8000b1c:	aa02      	add	r2, sp, #8
 8000b1e:	2302      	movs	r3, #2
 8000b20:	2178      	movs	r1, #120	; 0x78
 8000b22:	4880      	ldr	r0, [pc, #512]	; (8000d24 <SSD1306_Init+0x330>)
 8000b24:	f8ad 7008 	strh.w	r7, [sp, #8]
 8000b28:	f001 f866 	bl	8001bf8 <HAL_I2C_Master_Transmit>
 8000b2c:	f44f 577c 	mov.w	r7, #16128	; 0x3f00
 8000b30:	9400      	str	r4, [sp, #0]
 8000b32:	aa02      	add	r2, sp, #8
 8000b34:	2302      	movs	r3, #2
 8000b36:	2178      	movs	r1, #120	; 0x78
 8000b38:	487a      	ldr	r0, [pc, #488]	; (8000d24 <SSD1306_Init+0x330>)
 8000b3a:	f8ad 7008 	strh.w	r7, [sp, #8]
 8000b3e:	f001 f85b 	bl	8001bf8 <HAL_I2C_Master_Transmit>
 8000b42:	f44f 4724 	mov.w	r7, #41984	; 0xa400
 8000b46:	9400      	str	r4, [sp, #0]
 8000b48:	aa02      	add	r2, sp, #8
 8000b4a:	2302      	movs	r3, #2
 8000b4c:	2178      	movs	r1, #120	; 0x78
 8000b4e:	4875      	ldr	r0, [pc, #468]	; (8000d24 <SSD1306_Init+0x330>)
 8000b50:	f8ad 7008 	strh.w	r7, [sp, #8]
 8000b54:	f001 f850 	bl	8001bf8 <HAL_I2C_Master_Transmit>
 8000b58:	f44f 4753 	mov.w	r7, #54016	; 0xd300
 8000b5c:	9400      	str	r4, [sp, #0]
 8000b5e:	aa02      	add	r2, sp, #8
 8000b60:	2302      	movs	r3, #2
 8000b62:	2178      	movs	r1, #120	; 0x78
 8000b64:	486f      	ldr	r0, [pc, #444]	; (8000d24 <SSD1306_Init+0x330>)
 8000b66:	f8ad 7008 	strh.w	r7, [sp, #8]
 8000b6a:	f001 f845 	bl	8001bf8 <HAL_I2C_Master_Transmit>
 8000b6e:	9400      	str	r4, [sp, #0]
 8000b70:	aa02      	add	r2, sp, #8
 8000b72:	2302      	movs	r3, #2
 8000b74:	2178      	movs	r1, #120	; 0x78
 8000b76:	486b      	ldr	r0, [pc, #428]	; (8000d24 <SSD1306_Init+0x330>)
 8000b78:	f8ad 5008 	strh.w	r5, [sp, #8]
 8000b7c:	f44f 4755 	mov.w	r7, #54528	; 0xd500
 8000b80:	f001 f83a 	bl	8001bf8 <HAL_I2C_Master_Transmit>
 8000b84:	9400      	str	r4, [sp, #0]
 8000b86:	aa02      	add	r2, sp, #8
 8000b88:	2302      	movs	r3, #2
 8000b8a:	2178      	movs	r1, #120	; 0x78
 8000b8c:	4865      	ldr	r0, [pc, #404]	; (8000d24 <SSD1306_Init+0x330>)
 8000b8e:	f8ad 7008 	strh.w	r7, [sp, #8]
 8000b92:	f001 f831 	bl	8001bf8 <HAL_I2C_Master_Transmit>
 8000b96:	f44f 4770 	mov.w	r7, #61440	; 0xf000
 8000b9a:	9400      	str	r4, [sp, #0]
 8000b9c:	aa02      	add	r2, sp, #8
 8000b9e:	2302      	movs	r3, #2
 8000ba0:	2178      	movs	r1, #120	; 0x78
 8000ba2:	4860      	ldr	r0, [pc, #384]	; (8000d24 <SSD1306_Init+0x330>)
 8000ba4:	f8ad 7008 	strh.w	r7, [sp, #8]
 8000ba8:	f001 f826 	bl	8001bf8 <HAL_I2C_Master_Transmit>
 8000bac:	f44f 4759 	mov.w	r7, #55552	; 0xd900
 8000bb0:	9400      	str	r4, [sp, #0]
 8000bb2:	aa02      	add	r2, sp, #8
 8000bb4:	2302      	movs	r3, #2
 8000bb6:	2178      	movs	r1, #120	; 0x78
 8000bb8:	485a      	ldr	r0, [pc, #360]	; (8000d24 <SSD1306_Init+0x330>)
 8000bba:	f8ad 7008 	strh.w	r7, [sp, #8]
 8000bbe:	f001 f81b 	bl	8001bf8 <HAL_I2C_Master_Transmit>
 8000bc2:	f44f 5708 	mov.w	r7, #8704	; 0x2200
 8000bc6:	9400      	str	r4, [sp, #0]
 8000bc8:	aa02      	add	r2, sp, #8
 8000bca:	2302      	movs	r3, #2
 8000bcc:	2178      	movs	r1, #120	; 0x78
 8000bce:	4855      	ldr	r0, [pc, #340]	; (8000d24 <SSD1306_Init+0x330>)
 8000bd0:	f8ad 7008 	strh.w	r7, [sp, #8]
 8000bd4:	f001 f810 	bl	8001bf8 <HAL_I2C_Master_Transmit>
 8000bd8:	f44f 475a 	mov.w	r7, #55808	; 0xda00
 8000bdc:	9400      	str	r4, [sp, #0]
 8000bde:	aa02      	add	r2, sp, #8
 8000be0:	2302      	movs	r3, #2
 8000be2:	2178      	movs	r1, #120	; 0x78
 8000be4:	484f      	ldr	r0, [pc, #316]	; (8000d24 <SSD1306_Init+0x330>)
 8000be6:	f8ad 7008 	strh.w	r7, [sp, #8]
 8000bea:	f001 f805 	bl	8001bf8 <HAL_I2C_Master_Transmit>
 8000bee:	f44f 5790 	mov.w	r7, #4608	; 0x1200
 8000bf2:	9400      	str	r4, [sp, #0]
 8000bf4:	aa02      	add	r2, sp, #8
 8000bf6:	2302      	movs	r3, #2
 8000bf8:	2178      	movs	r1, #120	; 0x78
 8000bfa:	484a      	ldr	r0, [pc, #296]	; (8000d24 <SSD1306_Init+0x330>)
 8000bfc:	f8ad 7008 	strh.w	r7, [sp, #8]
 8000c00:	f000 fffa 	bl	8001bf8 <HAL_I2C_Master_Transmit>
 8000c04:	f44f 475b 	mov.w	r7, #56064	; 0xdb00
 8000c08:	9400      	str	r4, [sp, #0]
 8000c0a:	aa02      	add	r2, sp, #8
 8000c0c:	2302      	movs	r3, #2
 8000c0e:	2178      	movs	r1, #120	; 0x78
 8000c10:	4844      	ldr	r0, [pc, #272]	; (8000d24 <SSD1306_Init+0x330>)
 8000c12:	f8ad 7008 	strh.w	r7, [sp, #8]
 8000c16:	f000 ffef 	bl	8001bf8 <HAL_I2C_Master_Transmit>
 8000c1a:	9400      	str	r4, [sp, #0]
 8000c1c:	aa02      	add	r2, sp, #8
 8000c1e:	2302      	movs	r3, #2
 8000c20:	2178      	movs	r1, #120	; 0x78
 8000c22:	4840      	ldr	r0, [pc, #256]	; (8000d24 <SSD1306_Init+0x330>)
 8000c24:	f8ad 6008 	strh.w	r6, [sp, #8]
 8000c28:	f000 ffe6 	bl	8001bf8 <HAL_I2C_Master_Transmit>
 8000c2c:	f44f 460d 	mov.w	r6, #36096	; 0x8d00
 8000c30:	9400      	str	r4, [sp, #0]
 8000c32:	aa02      	add	r2, sp, #8
 8000c34:	2302      	movs	r3, #2
 8000c36:	2178      	movs	r1, #120	; 0x78
 8000c38:	483a      	ldr	r0, [pc, #232]	; (8000d24 <SSD1306_Init+0x330>)
 8000c3a:	f8ad 6008 	strh.w	r6, [sp, #8]
 8000c3e:	f000 ffdb 	bl	8001bf8 <HAL_I2C_Master_Transmit>
 8000c42:	f44f 56a0 	mov.w	r6, #5120	; 0x1400
 8000c46:	9400      	str	r4, [sp, #0]
 8000c48:	aa02      	add	r2, sp, #8
 8000c4a:	2302      	movs	r3, #2
 8000c4c:	2178      	movs	r1, #120	; 0x78
 8000c4e:	4835      	ldr	r0, [pc, #212]	; (8000d24 <SSD1306_Init+0x330>)
 8000c50:	f8ad 6008 	strh.w	r6, [sp, #8]
 8000c54:	f000 ffd0 	bl	8001bf8 <HAL_I2C_Master_Transmit>
 8000c58:	f44f 462f 	mov.w	r6, #44800	; 0xaf00
 8000c5c:	9400      	str	r4, [sp, #0]
 8000c5e:	aa02      	add	r2, sp, #8
 8000c60:	2302      	movs	r3, #2
 8000c62:	2178      	movs	r1, #120	; 0x78
 8000c64:	482f      	ldr	r0, [pc, #188]	; (8000d24 <SSD1306_Init+0x330>)
 8000c66:	f8ad 6008 	strh.w	r6, [sp, #8]
 8000c6a:	f000 ffc5 	bl	8001bf8 <HAL_I2C_Master_Transmit>
 8000c6e:	9400      	str	r4, [sp, #0]
 8000c70:	aa02      	add	r2, sp, #8
 8000c72:	f44f 5438 	mov.w	r4, #11776	; 0x2e00
 8000c76:	2302      	movs	r3, #2
 8000c78:	2178      	movs	r1, #120	; 0x78
 8000c7a:	482a      	ldr	r0, [pc, #168]	; (8000d24 <SSD1306_Init+0x330>)
 8000c7c:	f8ad 4008 	strh.w	r4, [sp, #8]
 8000c80:	f000 ffba 	bl	8001bf8 <HAL_I2C_Master_Transmit>
 8000c84:	4828      	ldr	r0, [pc, #160]	; (8000d28 <SSD1306_Init+0x334>)
 8000c86:	4e27      	ldr	r6, [pc, #156]	; (8000d24 <SSD1306_Init+0x330>)
 8000c88:	4629      	mov	r1, r5
 8000c8a:	f44f 6280 	mov.w	r2, #1024	; 0x400
 8000c8e:	4680      	mov	r8, r0
 8000c90:	f002 f82c 	bl	8002cec <memset>
 8000c94:	25b0      	movs	r5, #176	; 0xb0
 8000c96:	f10d 0489 	add.w	r4, sp, #137	; 0x89
 8000c9a:	270a      	movs	r7, #10
 8000c9c:	9700      	str	r7, [sp, #0]
 8000c9e:	f04f 0900 	mov.w	r9, #0
 8000ca2:	2302      	movs	r3, #2
 8000ca4:	aa02      	add	r2, sp, #8
 8000ca6:	2178      	movs	r1, #120	; 0x78
 8000ca8:	4630      	mov	r0, r6
 8000caa:	f88d 5009 	strb.w	r5, [sp, #9]
 8000cae:	f88d 9008 	strb.w	r9, [sp, #8]
 8000cb2:	f000 ffa1 	bl	8001bf8 <HAL_I2C_Master_Transmit>
 8000cb6:	9700      	str	r7, [sp, #0]
 8000cb8:	2302      	movs	r3, #2
 8000cba:	aa02      	add	r2, sp, #8
 8000cbc:	2178      	movs	r1, #120	; 0x78
 8000cbe:	4630      	mov	r0, r6
 8000cc0:	f8ad 9008 	strh.w	r9, [sp, #8]
 8000cc4:	f000 ff98 	bl	8001bf8 <HAL_I2C_Master_Transmit>
 8000cc8:	9700      	str	r7, [sp, #0]
 8000cca:	2302      	movs	r3, #2
 8000ccc:	aa02      	add	r2, sp, #8
 8000cce:	f44f 5780 	mov.w	r7, #4096	; 0x1000
 8000cd2:	2178      	movs	r1, #120	; 0x78
 8000cd4:	4630      	mov	r0, r6
 8000cd6:	f8ad 7008 	strh.w	r7, [sp, #8]
 8000cda:	f000 ff8d 	bl	8001bf8 <HAL_I2C_Master_Transmit>
 8000cde:	2340      	movs	r3, #64	; 0x40
 8000ce0:	f88d 3008 	strb.w	r3, [sp, #8]
 8000ce4:	4642      	mov	r2, r8
 8000ce6:	f10d 0309 	add.w	r3, sp, #9
 8000cea:	f852 1b04 	ldr.w	r1, [r2], #4
 8000cee:	f843 1b04 	str.w	r1, [r3], #4
 8000cf2:	42a3      	cmp	r3, r4
 8000cf4:	d1f9      	bne.n	8000cea <SSD1306_Init+0x2f6>
 8000cf6:	230a      	movs	r3, #10
 8000cf8:	3501      	adds	r5, #1
 8000cfa:	9300      	str	r3, [sp, #0]
 8000cfc:	aa02      	add	r2, sp, #8
 8000cfe:	2381      	movs	r3, #129	; 0x81
 8000d00:	2178      	movs	r1, #120	; 0x78
 8000d02:	4630      	mov	r0, r6
 8000d04:	b2ed      	uxtb	r5, r5
 8000d06:	f000 ff77 	bl	8001bf8 <HAL_I2C_Master_Transmit>
 8000d0a:	2db8      	cmp	r5, #184	; 0xb8
 8000d0c:	f108 0880 	add.w	r8, r8, #128	; 0x80
 8000d10:	d1c3      	bne.n	8000c9a <SSD1306_Init+0x2a6>
 8000d12:	4b06      	ldr	r3, [pc, #24]	; (8000d2c <SSD1306_Init+0x338>)
 8000d14:	2001      	movs	r0, #1
 8000d16:	2200      	movs	r2, #0
 8000d18:	601a      	str	r2, [r3, #0]
 8000d1a:	7158      	strb	r0, [r3, #5]
 8000d1c:	b043      	add	sp, #268	; 0x10c
 8000d1e:	e8bd 83f0 	ldmia.w	sp!, {r4, r5, r6, r7, r8, r9, pc}
 8000d22:	bf00      	nop
 8000d24:	20000590 	.word	0x20000590
 8000d28:	200000b4 	.word	0x200000b4
 8000d2c:	200000ac 	.word	0x200000ac

08000d30 <SSD1306_UpdateScreen>:
 8000d30:	e92d 41f0 	stmdb	sp!, {r4, r5, r6, r7, r8, lr}
 8000d34:	4f18      	ldr	r7, [pc, #96]	; (8000d98 <SSD1306_UpdateScreen+0x68>)
 8000d36:	4e19      	ldr	r6, [pc, #100]	; (8000d9c <SSD1306_UpdateScreen+0x6c>)
 8000d38:	b084      	sub	sp, #16
 8000d3a:	24b0      	movs	r4, #176	; 0xb0
 8000d3c:	250a      	movs	r5, #10
 8000d3e:	9500      	str	r5, [sp, #0]
 8000d40:	f04f 0800 	mov.w	r8, #0
 8000d44:	2302      	movs	r3, #2
 8000d46:	aa03      	add	r2, sp, #12
 8000d48:	2178      	movs	r1, #120	; 0x78
 8000d4a:	4630      	mov	r0, r6
 8000d4c:	f88d 400d 	strb.w	r4, [sp, #13]
 8000d50:	f88d 800c 	strb.w	r8, [sp, #12]
 8000d54:	f000 ff50 	bl	8001bf8 <HAL_I2C_Master_Transmit>
 8000d58:	9500      	str	r5, [sp, #0]
 8000d5a:	2302      	movs	r3, #2
 8000d5c:	aa03      	add	r2, sp, #12
 8000d5e:	2178      	movs	r1, #120	; 0x78
 8000d60:	4630      	mov	r0, r6
 8000d62:	f8ad 800c 	strh.w	r8, [sp, #12]
 8000d66:	3401      	adds	r4, #1
 8000d68:	f000 ff46 	bl	8001bf8 <HAL_I2C_Master_Transmit>
 8000d6c:	9500      	str	r5, [sp, #0]
 8000d6e:	2302      	movs	r3, #2
 8000d70:	aa03      	add	r2, sp, #12
 8000d72:	2178      	movs	r1, #120	; 0x78
 8000d74:	f44f 5580 	mov.w	r5, #4096	; 0x1000
 8000d78:	4630      	mov	r0, r6
 8000d7a:	f8ad 500c 	strh.w	r5, [sp, #12]
 8000d7e:	b2e4      	uxtb	r4, r4
 8000d80:	f000 ff3a 	bl	8001bf8 <HAL_I2C_Master_Transmit>
 8000d84:	4638      	mov	r0, r7
 8000d86:	f7ff fe0d 	bl	80009a4 <ssd1306_I2C_WriteMulti.constprop.2>
 8000d8a:	2cb8      	cmp	r4, #184	; 0xb8
 8000d8c:	f107 0780 	add.w	r7, r7, #128	; 0x80
 8000d90:	d1d4      	bne.n	8000d3c <SSD1306_UpdateScreen+0xc>
 8000d92:	b004      	add	sp, #16
 8000d94:	e8bd 81f0 	ldmia.w	sp!, {r4, r5, r6, r7, r8, pc}
 8000d98:	200000b4 	.word	0x200000b4
 8000d9c:	20000590 	.word	0x20000590

08000da0 <SSD1306_GotoXY>:
 8000da0:	4b01      	ldr	r3, [pc, #4]	; (8000da8 <SSD1306_GotoXY+0x8>)
 8000da2:	8018      	strh	r0, [r3, #0]
 8000da4:	8059      	strh	r1, [r3, #2]
 8000da6:	4770      	bx	lr
 8000da8:	200000ac 	.word	0x200000ac

08000dac <SSD1306_Puts>:
 8000dac:	e92d 4ff0 	stmdb	sp!, {r4, r5, r6, r7, r8, r9, sl, fp, lr}
 8000db0:	4682      	mov	sl, r0
 8000db2:	7800      	ldrb	r0, [r0, #0]
 8000db4:	b087      	sub	sp, #28
 8000db6:	2800      	cmp	r0, #0
 8000db8:	d06d      	beq.n	8000e96 <SSD1306_Puts+0xea>
 8000dba:	4c68      	ldr	r4, [pc, #416]	; (8000f5c <SSD1306_Puts+0x1b0>)
 8000dbc:	780b      	ldrb	r3, [r1, #0]
 8000dbe:	7926      	ldrb	r6, [r4, #4]
 8000dc0:	8865      	ldrh	r5, [r4, #2]
 8000dc2:	9503      	str	r5, [sp, #12]
 8000dc4:	2a00      	cmp	r2, #0
 8000dc6:	f8b4 e000 	ldrh.w	lr, [r4]
 8000dca:	f8df 8194 	ldr.w	r8, [pc, #404]	; 8000f60 <SSD1306_Puts+0x1b4>
 8000dce:	bf0b      	itete	eq
 8000dd0:	2401      	moveq	r4, #1
 8000dd2:	2400      	movne	r4, #0
 8000dd4:	2500      	moveq	r5, #0
 8000dd6:	2501      	movne	r5, #1
 8000dd8:	2e00      	cmp	r6, #0
 8000dda:	bf0c      	ite	eq
 8000ddc:	4625      	moveq	r5, r4
 8000dde:	4622      	movne	r2, r4
 8000de0:	9501      	str	r5, [sp, #4]
 8000de2:	9202      	str	r2, [sp, #8]
 8000de4:	2400      	movs	r4, #0
 8000de6:	eb0e 0203 	add.w	r2, lr, r3
 8000dea:	2a7f      	cmp	r2, #127	; 0x7f
 8000dec:	f300 809a 	bgt.w	8000f24 <SSD1306_Puts+0x178>
 8000df0:	784e      	ldrb	r6, [r1, #1]
 8000df2:	9f03      	ldr	r7, [sp, #12]
 8000df4:	19f5      	adds	r5, r6, r7
 8000df6:	2d3f      	cmp	r5, #63	; 0x3f
 8000df8:	f300 8094 	bgt.w	8000f24 <SSD1306_Puts+0x178>
 8000dfc:	2e00      	cmp	r6, #0
 8000dfe:	f000 80a8 	beq.w	8000f52 <SSD1306_Puts+0x1a6>
 8000e02:	f1a0 0220 	sub.w	r2, r0, #32
 8000e06:	e9cd 0a04 	strd	r0, sl, [sp, #16]
 8000e0a:	2500      	movs	r5, #0
 8000e0c:	4691      	mov	r9, r2
 8000e0e:	46ba      	mov	sl, r7
 8000e10:	fb09 5006 	mla	r0, r9, r6, r5
 8000e14:	684a      	ldr	r2, [r1, #4]
 8000e16:	f832 7010 	ldrh.w	r7, [r2, r0, lsl #1]
 8000e1a:	b33b      	cbz	r3, 8000e6c <SSD1306_Puts+0xc0>
 8000e1c:	eb0a 0405 	add.w	r4, sl, r5
 8000e20:	b2a4      	uxth	r4, r4
 8000e22:	2201      	movs	r2, #1
 8000e24:	f004 0007 	and.w	r0, r4, #7
 8000e28:	fa02 f000 	lsl.w	r0, r2, r0
 8000e2c:	b240      	sxtb	r0, r0
 8000e2e:	08e2      	lsrs	r2, r4, #3
 8000e30:	2c3f      	cmp	r4, #63	; 0x3f
 8000e32:	ea6f 0c00 	mvn.w	ip, r0
 8000e36:	ea4f 12c2 	mov.w	r2, r2, lsl #7
 8000e3a:	d817      	bhi.n	8000e6c <SSD1306_Puts+0xc0>
 8000e3c:	9c02      	ldr	r4, [sp, #8]
 8000e3e:	2c01      	cmp	r4, #1
 8000e40:	d02d      	beq.n	8000e9e <SSD1306_Puts+0xf2>
 8000e42:	9c01      	ldr	r4, [sp, #4]
 8000e44:	2c00      	cmp	r4, #0
 8000e46:	d14c      	bne.n	8000ee2 <SSD1306_Puts+0x136>
 8000e48:	4670      	mov	r0, lr
 8000e4a:	287f      	cmp	r0, #127	; 0x7f
 8000e4c:	eb00 0602 	add.w	r6, r0, r2
 8000e50:	d806      	bhi.n	8000e60 <SSD1306_Puts+0xb4>
 8000e52:	f818 3006 	ldrb.w	r3, [r8, r6]
 8000e56:	ea0c 0303 	and.w	r3, ip, r3
 8000e5a:	f808 3006 	strb.w	r3, [r8, r6]
 8000e5e:	780b      	ldrb	r3, [r1, #0]
 8000e60:	3401      	adds	r4, #1
 8000e62:	3001      	adds	r0, #1
 8000e64:	429c      	cmp	r4, r3
 8000e66:	b280      	uxth	r0, r0
 8000e68:	d3ef      	bcc.n	8000e4a <SSD1306_Puts+0x9e>
 8000e6a:	784e      	ldrb	r6, [r1, #1]
 8000e6c:	3501      	adds	r5, #1
 8000e6e:	42b5      	cmp	r5, r6
 8000e70:	d3ce      	bcc.n	8000e10 <SSD1306_Puts+0x64>
 8000e72:	e9dd 0a04 	ldrd	r0, sl, [sp, #16]
 8000e76:	f89a 4000 	ldrb.w	r4, [sl]
 8000e7a:	eb0e 0203 	add.w	r2, lr, r3
 8000e7e:	42a0      	cmp	r0, r4
 8000e80:	fa1f fe82 	uxth.w	lr, r2
 8000e84:	d167      	bne.n	8000f56 <SSD1306_Puts+0x1aa>
 8000e86:	f81a 0f01 	ldrb.w	r0, [sl, #1]!
 8000e8a:	2401      	movs	r4, #1
 8000e8c:	2800      	cmp	r0, #0
 8000e8e:	d1aa      	bne.n	8000de6 <SSD1306_Puts+0x3a>
 8000e90:	4b32      	ldr	r3, [pc, #200]	; (8000f5c <SSD1306_Puts+0x1b0>)
 8000e92:	f8a3 e000 	strh.w	lr, [r3]
 8000e96:	2000      	movs	r0, #0
 8000e98:	b007      	add	sp, #28
 8000e9a:	e8bd 8ff0 	ldmia.w	sp!, {r4, r5, r6, r7, r8, r9, sl, fp, pc}
 8000e9e:	9e01      	ldr	r6, [sp, #4]
 8000ea0:	4674      	mov	r4, lr
 8000ea2:	b16e      	cbz	r6, 8000ec0 <SSD1306_Puts+0x114>
 8000ea4:	e044      	b.n	8000f30 <SSD1306_Puts+0x184>
 8000ea6:	2c7f      	cmp	r4, #127	; 0x7f
 8000ea8:	d805      	bhi.n	8000eb6 <SSD1306_Puts+0x10a>
 8000eaa:	f818 300b 	ldrb.w	r3, [r8, fp]
 8000eae:	4303      	orrs	r3, r0
 8000eb0:	f808 300b 	strb.w	r3, [r8, fp]
 8000eb4:	780b      	ldrb	r3, [r1, #0]
 8000eb6:	3601      	adds	r6, #1
 8000eb8:	3401      	adds	r4, #1
 8000eba:	429e      	cmp	r6, r3
 8000ebc:	b2a4      	uxth	r4, r4
 8000ebe:	d2d4      	bcs.n	8000e6a <SSD1306_Puts+0xbe>
 8000ec0:	fa07 fb06 	lsl.w	fp, r7, r6
 8000ec4:	f41b 4f00 	tst.w	fp, #32768	; 0x8000
 8000ec8:	eb04 0b02 	add.w	fp, r4, r2
 8000ecc:	d1eb      	bne.n	8000ea6 <SSD1306_Puts+0xfa>
 8000ece:	2c7f      	cmp	r4, #127	; 0x7f
 8000ed0:	d8f1      	bhi.n	8000eb6 <SSD1306_Puts+0x10a>
 8000ed2:	f818 300b 	ldrb.w	r3, [r8, fp]
 8000ed6:	ea0c 0303 	and.w	r3, ip, r3
 8000eda:	f808 300b 	strb.w	r3, [r8, fp]
 8000ede:	780b      	ldrb	r3, [r1, #0]
 8000ee0:	e7e9      	b.n	8000eb6 <SSD1306_Puts+0x10a>
 8000ee2:	2600      	movs	r6, #0
 8000ee4:	e00b      	b.n	8000efe <SSD1306_Puts+0x152>
 8000ee6:	2c7f      	cmp	r4, #127	; 0x7f
 8000ee8:	d806      	bhi.n	8000ef8 <SSD1306_Puts+0x14c>
 8000eea:	f818 300b 	ldrb.w	r3, [r8, fp]
 8000eee:	ea0c 0303 	and.w	r3, ip, r3
 8000ef2:	f808 300b 	strb.w	r3, [r8, fp]
 8000ef6:	780b      	ldrb	r3, [r1, #0]
 8000ef8:	3601      	adds	r6, #1
 8000efa:	42b3      	cmp	r3, r6
 8000efc:	d9b5      	bls.n	8000e6a <SSD1306_Puts+0xbe>
 8000efe:	fa07 fb06 	lsl.w	fp, r7, r6
 8000f02:	eb0e 0406 	add.w	r4, lr, r6
 8000f06:	b2a4      	uxth	r4, r4
 8000f08:	f41b 4f00 	tst.w	fp, #32768	; 0x8000
 8000f0c:	eb04 0b02 	add.w	fp, r4, r2
 8000f10:	d1e9      	bne.n	8000ee6 <SSD1306_Puts+0x13a>
 8000f12:	2c7f      	cmp	r4, #127	; 0x7f
 8000f14:	d8f0      	bhi.n	8000ef8 <SSD1306_Puts+0x14c>
 8000f16:	f818 300b 	ldrb.w	r3, [r8, fp]
 8000f1a:	4303      	orrs	r3, r0
 8000f1c:	f808 300b 	strb.w	r3, [r8, fp]
 8000f20:	780b      	ldrb	r3, [r1, #0]
 8000f22:	e7e9      	b.n	8000ef8 <SSD1306_Puts+0x14c>
 8000f24:	2c00      	cmp	r4, #0
 8000f26:	d0b7      	beq.n	8000e98 <SSD1306_Puts+0xec>
 8000f28:	4b0c      	ldr	r3, [pc, #48]	; (8000f5c <SSD1306_Puts+0x1b0>)
 8000f2a:	f8a3 e000 	strh.w	lr, [r3]
 8000f2e:	e7b3      	b.n	8000e98 <SSD1306_Puts+0xec>
 8000f30:	2600      	movs	r6, #0
 8000f32:	2c7f      	cmp	r4, #127	; 0x7f
 8000f34:	eb04 0c02 	add.w	ip, r4, r2
 8000f38:	d805      	bhi.n	8000f46 <SSD1306_Puts+0x19a>
 8000f3a:	f818 300c 	ldrb.w	r3, [r8, ip]
 8000f3e:	4303      	orrs	r3, r0
 8000f40:	f808 300c 	strb.w	r3, [r8, ip]
 8000f44:	780b      	ldrb	r3, [r1, #0]
 8000f46:	3601      	adds	r6, #1
 8000f48:	3401      	adds	r4, #1
 8000f4a:	42b3      	cmp	r3, r6
 8000f4c:	b2a4      	uxth	r4, r4
 8000f4e:	d8f0      	bhi.n	8000f32 <SSD1306_Puts+0x186>
 8000f50:	e78b      	b.n	8000e6a <SSD1306_Puts+0xbe>
 8000f52:	4604      	mov	r4, r0
 8000f54:	e793      	b.n	8000e7e <SSD1306_Puts+0xd2>
 8000f56:	4620      	mov	r0, r4
 8000f58:	e7e6      	b.n	8000f28 <SSD1306_Puts+0x17c>
 8000f5a:	bf00      	nop
 8000f5c:	200000ac 	.word	0x200000ac
 8000f60:	200000b4 	.word	0x200000b4

08000f64 <SSD1306_Clear>:
 8000f64:	e92d 41f0 	stmdb	sp!, {r4, r5, r6, r7, r8, lr}
 8000f68:	481b      	ldr	r0, [pc, #108]	; (8000fd8 <SSD1306_Clear+0x74>)
 8000f6a:	4e1c      	ldr	r6, [pc, #112]	; (8000fdc <SSD1306_Clear+0x78>)
 8000f6c:	b084      	sub	sp, #16
 8000f6e:	f44f 6280 	mov.w	r2, #1024	; 0x400
 8000f72:	2100      	movs	r1, #0
 8000f74:	4607      	mov	r7, r0
 8000f76:	f001 feb9 	bl	8002cec <memset>
 8000f7a:	24b0      	movs	r4, #176	; 0xb0
 8000f7c:	250a      	movs	r5, #10
 8000f7e:	9500      	str	r5, [sp, #0]
 8000f80:	f04f 0800 	mov.w	r8, #0
 8000f84:	2302      	movs	r3, #2
 8000f86:	aa03      	add	r2, sp, #12
 8000f88:	2178      	movs	r1, #120	; 0x78
 8000f8a:	4630      	mov	r0, r6
 8000f8c:	f88d 400d 	strb.w	r4, [sp, #13]
 8000f90:	f88d 800c 	strb.w	r8, [sp, #12]
 8000f94:	f000 fe30 	bl	8001bf8 <HAL_I2C_Master_Transmit>
 8000f98:	9500      	str	r5, [sp, #0]
 8000f9a:	2302      	movs	r3, #2
 8000f9c:	aa03      	add	r2, sp, #12
 8000f9e:	2178      	movs	r1, #120	; 0x78
 8000fa0:	4630      	mov	r0, r6
 8000fa2:	f8ad 800c 	strh.w	r8, [sp, #12]
 8000fa6:	3401      	adds	r4, #1
 8000fa8:	f000 fe26 	bl	8001bf8 <HAL_I2C_Master_Transmit>
 8000fac:	9500      	str	r5, [sp, #0]
 8000fae:	2302      	movs	r3, #2
 8000fb0:	aa03      	add	r2, sp, #12
 8000fb2:	2178      	movs	r1, #120	; 0x78
 8000fb4:	f44f 5580 	mov.w	r5, #4096	; 0x1000
 8000fb8:	4630      	mov	r0, r6
 8000fba:	f8ad 500c 	strh.w	r5, [sp, #12]
 8000fbe:	b2e4      	uxtb	r4, r4
 8000fc0:	f000 fe1a 	bl	8001bf8 <HAL_I2C_Master_Transmit>
 8000fc4:	4638      	mov	r0, r7
 8000fc6:	f7ff fced 	bl	80009a4 <ssd1306_I2C_WriteMulti.constprop.2>
 8000fca:	2cb8      	cmp	r4, #184	; 0xb8
 8000fcc:	f107 0780 	add.w	r7, r7, #128	; 0x80
 8000fd0:	d1d4      	bne.n	8000f7c <SSD1306_Clear+0x18>
 8000fd2:	b004      	add	sp, #16
 8000fd4:	e8bd 81f0 	ldmia.w	sp!, {r4, r5, r6, r7, r8, pc}
 8000fd8:	200000b4 	.word	0x200000b4
 8000fdc:	20000590 	.word	0x20000590

08000fe0 <HAL_MspInit>:
 8000fe0:	b082      	sub	sp, #8
 8000fe2:	4b0c      	ldr	r3, [pc, #48]	; (8001014 <HAL_MspInit+0x34>)
 8000fe4:	2100      	movs	r1, #0
 8000fe6:	9100      	str	r1, [sp, #0]
 8000fe8:	6c5a      	ldr	r2, [r3, #68]	; 0x44
 8000fea:	f442 4280 	orr.w	r2, r2, #16384	; 0x4000
 8000fee:	645a      	str	r2, [r3, #68]	; 0x44
 8000ff0:	6c5a      	ldr	r2, [r3, #68]	; 0x44
 8000ff2:	f402 4280 	and.w	r2, r2, #16384	; 0x4000
 8000ff6:	9200      	str	r2, [sp, #0]
 8000ff8:	9a00      	ldr	r2, [sp, #0]
 8000ffa:	9101      	str	r1, [sp, #4]
 8000ffc:	6c1a      	ldr	r2, [r3, #64]	; 0x40
 8000ffe:	f042 5280 	orr.w	r2, r2, #268435456	; 0x10000000
 8001002:	641a      	str	r2, [r3, #64]	; 0x40
 8001004:	6c1b      	ldr	r3, [r3, #64]	; 0x40
 8001006:	f003 5380 	and.w	r3, r3, #268435456	; 0x10000000
 800100a:	9301      	str	r3, [sp, #4]
 800100c:	9b01      	ldr	r3, [sp, #4]
 800100e:	b002      	add	sp, #8
 8001010:	4770      	bx	lr
 8001012:	bf00      	nop
 8001014:	40023800 	.word	0x40023800

08001018 <HAL_CAN_MspInit>:
 8001018:	b570      	push	{r4, r5, r6, lr}
 800101a:	6801      	ldr	r1, [r0, #0]
 800101c:	4a18      	ldr	r2, [pc, #96]	; (8001080 <HAL_CAN_MspInit+0x68>)
 800101e:	b088      	sub	sp, #32
 8001020:	2300      	movs	r3, #0
 8001022:	4291      	cmp	r1, r2
 8001024:	e9cd 3303 	strd	r3, r3, [sp, #12]
 8001028:	e9cd 3305 	strd	r3, r3, [sp, #20]
 800102c:	9307      	str	r3, [sp, #28]
 800102e:	d001      	beq.n	8001034 <HAL_CAN_MspInit+0x1c>
 8001030:	b008      	add	sp, #32
 8001032:	bd70      	pop	{r4, r5, r6, pc}
 8001034:	f502 32ea 	add.w	r2, r2, #119808	; 0x1d400
 8001038:	9301      	str	r3, [sp, #4]
 800103a:	6c11      	ldr	r1, [r2, #64]	; 0x40
 800103c:	4811      	ldr	r0, [pc, #68]	; (8001084 <HAL_CAN_MspInit+0x6c>)
 800103e:	f041 7100 	orr.w	r1, r1, #33554432	; 0x2000000
 8001042:	6411      	str	r1, [r2, #64]	; 0x40
 8001044:	6c11      	ldr	r1, [r2, #64]	; 0x40
 8001046:	f001 7100 	and.w	r1, r1, #33554432	; 0x2000000
 800104a:	9101      	str	r1, [sp, #4]
 800104c:	9901      	ldr	r1, [sp, #4]
 800104e:	9302      	str	r3, [sp, #8]
 8001050:	6b13      	ldr	r3, [r2, #48]	; 0x30
 8001052:	f043 0301 	orr.w	r3, r3, #1
 8001056:	6313      	str	r3, [r2, #48]	; 0x30
 8001058:	6b13      	ldr	r3, [r2, #48]	; 0x30
 800105a:	f003 0301 	and.w	r3, r3, #1
 800105e:	9302      	str	r3, [sp, #8]
 8001060:	2203      	movs	r2, #3
 8001062:	2309      	movs	r3, #9
 8001064:	a903      	add	r1, sp, #12
 8001066:	f44f 55c0 	mov.w	r5, #6144	; 0x1800
 800106a:	2402      	movs	r4, #2
 800106c:	9e02      	ldr	r6, [sp, #8]
 800106e:	e9cd 5403 	strd	r5, r4, [sp, #12]
 8001072:	e9cd 2306 	strd	r2, r3, [sp, #24]
 8001076:	f000 fbef 	bl	8001858 <HAL_GPIO_Init>
 800107a:	b008      	add	sp, #32
 800107c:	bd70      	pop	{r4, r5, r6, pc}
 800107e:	bf00      	nop
 8001080:	40006400 	.word	0x40006400
 8001084:	40020000 	.word	0x40020000

08001088 <HAL_I2C_MspInit>:
 8001088:	b570      	push	{r4, r5, r6, lr}
 800108a:	6802      	ldr	r2, [r0, #0]
 800108c:	4b18      	ldr	r3, [pc, #96]	; (80010f0 <HAL_I2C_MspInit+0x68>)
 800108e:	b088      	sub	sp, #32
 8001090:	2400      	movs	r4, #0
 8001092:	429a      	cmp	r2, r3
 8001094:	e9cd 4403 	strd	r4, r4, [sp, #12]
 8001098:	e9cd 4405 	strd	r4, r4, [sp, #20]
 800109c:	9407      	str	r4, [sp, #28]
 800109e:	d001      	beq.n	80010a4 <HAL_I2C_MspInit+0x1c>
 80010a0:	b008      	add	sp, #32
 80010a2:	bd70      	pop	{r4, r5, r6, pc}
 80010a4:	4d13      	ldr	r5, [pc, #76]	; (80010f4 <HAL_I2C_MspInit+0x6c>)
 80010a6:	9401      	str	r4, [sp, #4]
 80010a8:	6b2b      	ldr	r3, [r5, #48]	; 0x30
 80010aa:	4813      	ldr	r0, [pc, #76]	; (80010f8 <HAL_I2C_MspInit+0x70>)
 80010ac:	f043 0302 	orr.w	r3, r3, #2
 80010b0:	632b      	str	r3, [r5, #48]	; 0x30
 80010b2:	6b2b      	ldr	r3, [r5, #48]	; 0x30
 80010b4:	f003 0302 	and.w	r3, r3, #2
 80010b8:	9301      	str	r3, [sp, #4]
 80010ba:	23c0      	movs	r3, #192	; 0xc0
 80010bc:	9303      	str	r3, [sp, #12]
 80010be:	2212      	movs	r2, #18
 80010c0:	2301      	movs	r3, #1
 80010c2:	9204      	str	r2, [sp, #16]
 80010c4:	9305      	str	r3, [sp, #20]
 80010c6:	2203      	movs	r2, #3
 80010c8:	2304      	movs	r3, #4
 80010ca:	a903      	add	r1, sp, #12
 80010cc:	e9cd 2306 	strd	r2, r3, [sp, #24]
 80010d0:	9e01      	ldr	r6, [sp, #4]
 80010d2:	f000 fbc1 	bl	8001858 <HAL_GPIO_Init>
 80010d6:	9402      	str	r4, [sp, #8]
 80010d8:	6c2b      	ldr	r3, [r5, #64]	; 0x40
 80010da:	f443 1300 	orr.w	r3, r3, #2097152	; 0x200000
 80010de:	642b      	str	r3, [r5, #64]	; 0x40
 80010e0:	6c2b      	ldr	r3, [r5, #64]	; 0x40
 80010e2:	f403 1300 	and.w	r3, r3, #2097152	; 0x200000
 80010e6:	9302      	str	r3, [sp, #8]
 80010e8:	9b02      	ldr	r3, [sp, #8]
 80010ea:	b008      	add	sp, #32
 80010ec:	bd70      	pop	{r4, r5, r6, pc}
 80010ee:	bf00      	nop
 80010f0:	40005400 	.word	0x40005400
 80010f4:	40023800 	.word	0x40023800
 80010f8:	40020400 	.word	0x40020400

080010fc <HAL_TIM_IC_MspInit>:
 80010fc:	b530      	push	{r4, r5, lr}
 80010fe:	6803      	ldr	r3, [r0, #0]
 8001100:	b089      	sub	sp, #36	; 0x24
 8001102:	2400      	movs	r4, #0
 8001104:	f1b3 4f80 	cmp.w	r3, #1073741824	; 0x40000000
 8001108:	e9cd 4403 	strd	r4, r4, [sp, #12]
 800110c:	e9cd 4405 	strd	r4, r4, [sp, #20]
 8001110:	9407      	str	r4, [sp, #28]
 8001112:	d001      	beq.n	8001118 <HAL_TIM_IC_MspInit+0x1c>
 8001114:	b009      	add	sp, #36	; 0x24
 8001116:	bd30      	pop	{r4, r5, pc}
 8001118:	f503 330e 	add.w	r3, r3, #145408	; 0x23800
 800111c:	9401      	str	r4, [sp, #4]
 800111e:	6c1a      	ldr	r2, [r3, #64]	; 0x40
 8001120:	4812      	ldr	r0, [pc, #72]	; (800116c <HAL_TIM_IC_MspInit+0x70>)
 8001122:	f042 0201 	orr.w	r2, r2, #1
 8001126:	641a      	str	r2, [r3, #64]	; 0x40
 8001128:	6c1a      	ldr	r2, [r3, #64]	; 0x40
 800112a:	f002 0201 	and.w	r2, r2, #1
 800112e:	9201      	str	r2, [sp, #4]
 8001130:	9a01      	ldr	r2, [sp, #4]
 8001132:	9402      	str	r4, [sp, #8]
 8001134:	6b1a      	ldr	r2, [r3, #48]	; 0x30
 8001136:	f042 0201 	orr.w	r2, r2, #1
 800113a:	631a      	str	r2, [r3, #48]	; 0x30
 800113c:	6b1b      	ldr	r3, [r3, #48]	; 0x30
 800113e:	f003 0301 	and.w	r3, r3, #1
 8001142:	9302      	str	r3, [sp, #8]
 8001144:	a903      	add	r1, sp, #12
 8001146:	2301      	movs	r3, #1
 8001148:	2202      	movs	r2, #2
 800114a:	9303      	str	r3, [sp, #12]
 800114c:	9307      	str	r3, [sp, #28]
 800114e:	9204      	str	r2, [sp, #16]
 8001150:	9d02      	ldr	r5, [sp, #8]
 8001152:	f000 fb81 	bl	8001858 <HAL_GPIO_Init>
 8001156:	4622      	mov	r2, r4
 8001158:	4621      	mov	r1, r4
 800115a:	201c      	movs	r0, #28
 800115c:	f000 fb1e 	bl	800179c <HAL_NVIC_SetPriority>
 8001160:	201c      	movs	r0, #28
 8001162:	f000 fb51 	bl	8001808 <HAL_NVIC_EnableIRQ>
 8001166:	b009      	add	sp, #36	; 0x24
 8001168:	bd30      	pop	{r4, r5, pc}
 800116a:	bf00      	nop
 800116c:	40020000 	.word	0x40020000

08001170 <NMI_Handler>:
 8001170:	4770      	bx	lr
 8001172:	bf00      	nop

08001174 <HardFault_Handler>:
 8001174:	e7fe      	b.n	8001174 <HardFault_Handler>
 8001176:	bf00      	nop

08001178 <MemManage_Handler>:
 8001178:	e7fe      	b.n	8001178 <MemManage_Handler>
 800117a:	bf00      	nop

0800117c <BusFault_Handler>:
 800117c:	e7fe      	b.n	800117c <BusFault_Handler>
 800117e:	bf00      	nop

08001180 <UsageFault_Handler>:
 8001180:	e7fe      	b.n	8001180 <UsageFault_Handler>
 8001182:	bf00      	nop

08001184 <SVC_Handler>:
 8001184:	4770      	bx	lr
 8001186:	bf00      	nop

08001188 <DebugMon_Handler>:
 8001188:	4770      	bx	lr
 800118a:	bf00      	nop

0800118c <PendSV_Handler>:
 800118c:	4770      	bx	lr
 800118e:	bf00      	nop

08001190 <SysTick_Handler>:
 8001190:	f000 b89a 	b.w	80012c8 <HAL_IncTick>

08001194 <TIM2_IRQHandler>:
 8001194:	4801      	ldr	r0, [pc, #4]	; (800119c <TIM2_IRQHandler+0x8>)
 8001196:	f001 bc8b 	b.w	8002ab0 <HAL_TIM_IRQHandler>
 800119a:	bf00      	nop
 800119c:	20000608 	.word	0x20000608

080011a0 <_sbrk>:
 80011a0:	4a0c      	ldr	r2, [pc, #48]	; (80011d4 <_sbrk+0x34>)
 80011a2:	b508      	push	{r3, lr}
 80011a4:	6813      	ldr	r3, [r2, #0]
 80011a6:	b133      	cbz	r3, 80011b6 <_sbrk+0x16>
 80011a8:	4418      	add	r0, r3
 80011aa:	4669      	mov	r1, sp
 80011ac:	4288      	cmp	r0, r1
 80011ae:	d808      	bhi.n	80011c2 <_sbrk+0x22>
 80011b0:	6010      	str	r0, [r2, #0]
 80011b2:	4618      	mov	r0, r3
 80011b4:	bd08      	pop	{r3, pc}
 80011b6:	4b08      	ldr	r3, [pc, #32]	; (80011d8 <_sbrk+0x38>)
 80011b8:	6013      	str	r3, [r2, #0]
 80011ba:	4418      	add	r0, r3
 80011bc:	4669      	mov	r1, sp
 80011be:	4288      	cmp	r0, r1
 80011c0:	d9f6      	bls.n	80011b0 <_sbrk+0x10>
 80011c2:	f001 fd69 	bl	8002c98 <__errno>
 80011c6:	230c      	movs	r3, #12
 80011c8:	6003      	str	r3, [r0, #0]
 80011ca:	f04f 33ff 	mov.w	r3, #4294967295
 80011ce:	4618      	mov	r0, r3
 80011d0:	bd08      	pop	{r3, pc}
 80011d2:	bf00      	nop
 80011d4:	200004b4 	.word	0x200004b4
 80011d8:	200006f0 	.word	0x200006f0

080011dc <SystemInit>:
 80011dc:	4b05      	ldr	r3, [pc, #20]	; (80011f4 <SystemInit+0x18>)
 80011de:	f8d3 2088 	ldr.w	r2, [r3, #136]	; 0x88
 80011e2:	f04f 6100 	mov.w	r1, #134217728	; 0x8000000
 80011e6:	f442 0270 	orr.w	r2, r2, #15728640	; 0xf00000
 80011ea:	f8c3 2088 	str.w	r2, [r3, #136]	; 0x88
 80011ee:	6099      	str	r1, [r3, #8]
 80011f0:	4770      	bx	lr
 80011f2:	bf00      	nop
 80011f4:	e000ed00 	.word	0xe000ed00

080011f8 <Reset_Handler>:
 80011f8:	f8df d034 	ldr.w	sp, [pc, #52]	; 8001230 <LoopFillZerobss+0x14>
 80011fc:	2100      	movs	r1, #0
 80011fe:	e003      	b.n	8001208 <LoopCopyDataInit>

08001200 <CopyDataInit>:
 8001200:	4b0c      	ldr	r3, [pc, #48]	; (8001234 <LoopFillZerobss+0x18>)
 8001202:	585b      	ldr	r3, [r3, r1]
 8001204:	5043      	str	r3, [r0, r1]
 8001206:	3104      	adds	r1, #4

08001208 <LoopCopyDataInit>:
 8001208:	480b      	ldr	r0, [pc, #44]	; (8001238 <LoopFillZerobss+0x1c>)
 800120a:	4b0c      	ldr	r3, [pc, #48]	; (800123c <LoopFillZerobss+0x20>)
 800120c:	1842      	adds	r2, r0, r1
 800120e:	429a      	cmp	r2, r3
 8001210:	d3f6      	bcc.n	8001200 <CopyDataInit>
 8001212:	4a0b      	ldr	r2, [pc, #44]	; (8001240 <LoopFillZerobss+0x24>)
 8001214:	e002      	b.n	800121c <LoopFillZerobss>

08001216 <FillZerobss>:
 8001216:	2300      	movs	r3, #0
 8001218:	f842 3b04 	str.w	r3, [r2], #4

0800121c <LoopFillZerobss>:
 800121c:	4b09      	ldr	r3, [pc, #36]	; (8001244 <LoopFillZerobss+0x28>)
 800121e:	429a      	cmp	r2, r3
 8001220:	d3f9      	bcc.n	8001216 <FillZerobss>
 8001222:	f7ff ffdb 	bl	80011dc <SystemInit>
 8001226:	f001 fd3d 	bl	8002ca4 <__libc_init_array>
 800122a:	f7ff f9eb 	bl	8000604 <main>
 800122e:	4770      	bx	lr
 8001230:	20020000 	.word	0x20020000
 8001234:	08004a80 	.word	0x08004a80
 8001238:	20000000 	.word	0x20000000
 800123c:	20000084 	.word	0x20000084
 8001240:	20000084 	.word	0x20000084
 8001244:	200006ec 	.word	0x200006ec

08001248 <ADC_IRQHandler>:
 8001248:	e7fe      	b.n	8001248 <ADC_IRQHandler>
	...

0800124c <HAL_InitTick>:
 800124c:	b538      	push	{r3, r4, r5, lr}
 800124e:	4a0e      	ldr	r2, [pc, #56]	; (8001288 <HAL_InitTick+0x3c>)
 8001250:	4b0e      	ldr	r3, [pc, #56]	; (800128c <HAL_InitTick+0x40>)
 8001252:	7812      	ldrb	r2, [r2, #0]
 8001254:	681b      	ldr	r3, [r3, #0]
 8001256:	4605      	mov	r5, r0
 8001258:	f44f 707a 	mov.w	r0, #1000	; 0x3e8
 800125c:	fbb0 f0f2 	udiv	r0, r0, r2
 8001260:	fbb3 f0f0 	udiv	r0, r3, r0
 8001264:	f000 fade 	bl	8001824 <HAL_SYSTICK_Config>
 8001268:	b908      	cbnz	r0, 800126e <HAL_InitTick+0x22>
 800126a:	2d0f      	cmp	r5, #15
 800126c:	d901      	bls.n	8001272 <HAL_InitTick+0x26>
 800126e:	2001      	movs	r0, #1
 8001270:	bd38      	pop	{r3, r4, r5, pc}
 8001272:	4604      	mov	r4, r0
 8001274:	4602      	mov	r2, r0
 8001276:	4629      	mov	r1, r5
 8001278:	f04f 30ff 	mov.w	r0, #4294967295
 800127c:	f000 fa8e 	bl	800179c <HAL_NVIC_SetPriority>
 8001280:	4b03      	ldr	r3, [pc, #12]	; (8001290 <HAL_InitTick+0x44>)
 8001282:	4620      	mov	r0, r4
 8001284:	601d      	str	r5, [r3, #0]
 8001286:	bd38      	pop	{r3, r4, r5, pc}
 8001288:	20000018 	.word	0x20000018
 800128c:	20000014 	.word	0x20000014
 8001290:	2000001c 	.word	0x2000001c

08001294 <HAL_Init>:
 8001294:	b508      	push	{r3, lr}
 8001296:	4b0b      	ldr	r3, [pc, #44]	; (80012c4 <HAL_Init+0x30>)
 8001298:	681a      	ldr	r2, [r3, #0]
 800129a:	f442 7200 	orr.w	r2, r2, #512	; 0x200
 800129e:	601a      	str	r2, [r3, #0]
 80012a0:	681a      	ldr	r2, [r3, #0]
 80012a2:	f442 6280 	orr.w	r2, r2, #1024	; 0x400
 80012a6:	601a      	str	r2, [r3, #0]
 80012a8:	681a      	ldr	r2, [r3, #0]
 80012aa:	f442 7280 	orr.w	r2, r2, #256	; 0x100
 80012ae:	601a      	str	r2, [r3, #0]
 80012b0:	2003      	movs	r0, #3
 80012b2:	f000 fa61 	bl	8001778 <HAL_NVIC_SetPriorityGrouping>
 80012b6:	2000      	movs	r0, #0
 80012b8:	f7ff ffc8 	bl	800124c <HAL_InitTick>
 80012bc:	f7ff fe90 	bl	8000fe0 <HAL_MspInit>
 80012c0:	2000      	movs	r0, #0
 80012c2:	bd08      	pop	{r3, pc}
 80012c4:	40023c00 	.word	0x40023c00

080012c8 <HAL_IncTick>:
 80012c8:	4a03      	ldr	r2, [pc, #12]	; (80012d8 <HAL_IncTick+0x10>)
 80012ca:	4b04      	ldr	r3, [pc, #16]	; (80012dc <HAL_IncTick+0x14>)
 80012cc:	6811      	ldr	r1, [r2, #0]
 80012ce:	781b      	ldrb	r3, [r3, #0]
 80012d0:	440b      	add	r3, r1
 80012d2:	6013      	str	r3, [r2, #0]
 80012d4:	4770      	bx	lr
 80012d6:	bf00      	nop
 80012d8:	200006e4 	.word	0x200006e4
 80012dc:	20000018 	.word	0x20000018

080012e0 <HAL_GetTick>:
 80012e0:	4b01      	ldr	r3, [pc, #4]	; (80012e8 <HAL_GetTick+0x8>)
 80012e2:	6818      	ldr	r0, [r3, #0]
 80012e4:	4770      	bx	lr
 80012e6:	bf00      	nop
 80012e8:	200006e4 	.word	0x200006e4

080012ec <HAL_Delay>:
 80012ec:	b538      	push	{r3, r4, r5, lr}
 80012ee:	4604      	mov	r4, r0
 80012f0:	f7ff fff6 	bl	80012e0 <HAL_GetTick>
 80012f4:	1c63      	adds	r3, r4, #1
 80012f6:	4605      	mov	r5, r0
 80012f8:	d002      	beq.n	8001300 <HAL_Delay+0x14>
 80012fa:	4b04      	ldr	r3, [pc, #16]	; (800130c <HAL_Delay+0x20>)
 80012fc:	781b      	ldrb	r3, [r3, #0]
 80012fe:	441c      	add	r4, r3
 8001300:	f7ff ffee 	bl	80012e0 <HAL_GetTick>
 8001304:	1b40      	subs	r0, r0, r5
 8001306:	42a0      	cmp	r0, r4
 8001308:	d3fa      	bcc.n	8001300 <HAL_Delay+0x14>
 800130a:	bd38      	pop	{r3, r4, r5, pc}
 800130c:	20000018 	.word	0x20000018

08001310 <HAL_CAN_Init>:
 8001310:	2800      	cmp	r0, #0
 8001312:	d07c      	beq.n	800140e <HAL_CAN_Init+0xfe>
 8001314:	b538      	push	{r3, r4, r5, lr}
 8001316:	f890 3020 	ldrb.w	r3, [r0, #32]
 800131a:	4604      	mov	r4, r0
 800131c:	2b00      	cmp	r3, #0
 800131e:	d073      	beq.n	8001408 <HAL_CAN_Init+0xf8>
 8001320:	6822      	ldr	r2, [r4, #0]
 8001322:	6813      	ldr	r3, [r2, #0]
 8001324:	f023 0302 	bic.w	r3, r3, #2
 8001328:	6013      	str	r3, [r2, #0]
 800132a:	f7ff ffd9 	bl	80012e0 <HAL_GetTick>
 800132e:	4605      	mov	r5, r0
 8001330:	e004      	b.n	800133c <HAL_CAN_Init+0x2c>
 8001332:	f7ff ffd5 	bl	80012e0 <HAL_GetTick>
 8001336:	1b40      	subs	r0, r0, r5
 8001338:	280a      	cmp	r0, #10
 800133a:	d85c      	bhi.n	80013f6 <HAL_CAN_Init+0xe6>
 800133c:	6823      	ldr	r3, [r4, #0]
 800133e:	685a      	ldr	r2, [r3, #4]
 8001340:	0791      	lsls	r1, r2, #30
 8001342:	d4f6      	bmi.n	8001332 <HAL_CAN_Init+0x22>
 8001344:	681a      	ldr	r2, [r3, #0]
 8001346:	f042 0201 	orr.w	r2, r2, #1
 800134a:	601a      	str	r2, [r3, #0]
 800134c:	f7ff ffc8 	bl	80012e0 <HAL_GetTick>
 8001350:	4605      	mov	r5, r0
 8001352:	e004      	b.n	800135e <HAL_CAN_Init+0x4e>
 8001354:	f7ff ffc4 	bl	80012e0 <HAL_GetTick>
 8001358:	1b40      	subs	r0, r0, r5
 800135a:	280a      	cmp	r0, #10
 800135c:	d84b      	bhi.n	80013f6 <HAL_CAN_Init+0xe6>
 800135e:	6823      	ldr	r3, [r4, #0]
 8001360:	685a      	ldr	r2, [r3, #4]
 8001362:	07d2      	lsls	r2, r2, #31
 8001364:	d5f6      	bpl.n	8001354 <HAL_CAN_Init+0x44>
 8001366:	7e22      	ldrb	r2, [r4, #24]
 8001368:	2a01      	cmp	r2, #1
 800136a:	681a      	ldr	r2, [r3, #0]
 800136c:	bf0c      	ite	eq
 800136e:	f042 0280 	orreq.w	r2, r2, #128	; 0x80
 8001372:	f022 0280 	bicne.w	r2, r2, #128	; 0x80
 8001376:	601a      	str	r2, [r3, #0]
 8001378:	7e62      	ldrb	r2, [r4, #25]
 800137a:	2a01      	cmp	r2, #1
 800137c:	681a      	ldr	r2, [r3, #0]
 800137e:	bf0c      	ite	eq
 8001380:	f042 0240 	orreq.w	r2, r2, #64	; 0x40
 8001384:	f022 0240 	bicne.w	r2, r2, #64	; 0x40
 8001388:	601a      	str	r2, [r3, #0]
 800138a:	7ea2      	ldrb	r2, [r4, #26]
 800138c:	2a01      	cmp	r2, #1
 800138e:	681a      	ldr	r2, [r3, #0]
 8001390:	bf0c      	ite	eq
 8001392:	f042 0220 	orreq.w	r2, r2, #32
 8001396:	f022 0220 	bicne.w	r2, r2, #32
 800139a:	601a      	str	r2, [r3, #0]
 800139c:	7ee2      	ldrb	r2, [r4, #27]
 800139e:	2a01      	cmp	r2, #1
 80013a0:	681a      	ldr	r2, [r3, #0]
 80013a2:	bf0c      	ite	eq
 80013a4:	f022 0210 	biceq.w	r2, r2, #16
 80013a8:	f042 0210 	orrne.w	r2, r2, #16
 80013ac:	601a      	str	r2, [r3, #0]
 80013ae:	7f22      	ldrb	r2, [r4, #28]
 80013b0:	2a01      	cmp	r2, #1
 80013b2:	681a      	ldr	r2, [r3, #0]
 80013b4:	bf0c      	ite	eq
 80013b6:	f042 0208 	orreq.w	r2, r2, #8
 80013ba:	f022 0208 	bicne.w	r2, r2, #8
 80013be:	601a      	str	r2, [r3, #0]
 80013c0:	7f62      	ldrb	r2, [r4, #29]
 80013c2:	2a01      	cmp	r2, #1
 80013c4:	681a      	ldr	r2, [r3, #0]
 80013c6:	bf0c      	ite	eq
 80013c8:	f042 0204 	orreq.w	r2, r2, #4
 80013cc:	f022 0204 	bicne.w	r2, r2, #4
 80013d0:	601a      	str	r2, [r3, #0]
 80013d2:	e9d4 2102 	ldrd	r2, r1, [r4, #8]
 80013d6:	e9d4 5004 	ldrd	r5, r0, [r4, #16]
 80013da:	430a      	orrs	r2, r1
 80013dc:	6861      	ldr	r1, [r4, #4]
 80013de:	432a      	orrs	r2, r5
 80013e0:	4302      	orrs	r2, r0
 80013e2:	3901      	subs	r1, #1
 80013e4:	430a      	orrs	r2, r1
 80013e6:	2501      	movs	r5, #1
 80013e8:	2100      	movs	r1, #0
 80013ea:	61da      	str	r2, [r3, #28]
 80013ec:	4608      	mov	r0, r1
 80013ee:	6261      	str	r1, [r4, #36]	; 0x24
 80013f0:	f884 5020 	strb.w	r5, [r4, #32]
 80013f4:	bd38      	pop	{r3, r4, r5, pc}
 80013f6:	6a63      	ldr	r3, [r4, #36]	; 0x24
 80013f8:	2205      	movs	r2, #5
 80013fa:	f443 3300 	orr.w	r3, r3, #131072	; 0x20000
 80013fe:	6263      	str	r3, [r4, #36]	; 0x24
 8001400:	2001      	movs	r0, #1
 8001402:	f884 2020 	strb.w	r2, [r4, #32]
 8001406:	bd38      	pop	{r3, r4, r5, pc}
 8001408:	f7ff fe06 	bl	8001018 <HAL_CAN_MspInit>
 800140c:	e788      	b.n	8001320 <HAL_CAN_Init+0x10>
 800140e:	2001      	movs	r0, #1
 8001410:	4770      	bx	lr
 8001412:	bf00      	nop

08001414 <HAL_CAN_ConfigFilter>:
 8001414:	f890 3020 	ldrb.w	r3, [r0, #32]
 8001418:	3b01      	subs	r3, #1
 800141a:	2b01      	cmp	r3, #1
 800141c:	d905      	bls.n	800142a <HAL_CAN_ConfigFilter+0x16>
 800141e:	6a43      	ldr	r3, [r0, #36]	; 0x24
 8001420:	f443 2380 	orr.w	r3, r3, #262144	; 0x40000
 8001424:	6243      	str	r3, [r0, #36]	; 0x24
 8001426:	2001      	movs	r0, #1
 8001428:	4770      	bx	lr
 800142a:	4b3c      	ldr	r3, [pc, #240]	; (800151c <HAL_CAN_ConfigFilter+0x108>)
 800142c:	f8d3 2200 	ldr.w	r2, [r3, #512]	; 0x200
 8001430:	f042 0201 	orr.w	r2, r2, #1
 8001434:	b4f0      	push	{r4, r5, r6, r7}
 8001436:	f8c3 2200 	str.w	r2, [r3, #512]	; 0x200
 800143a:	f8d3 2200 	ldr.w	r2, [r3, #512]	; 0x200
 800143e:	f422 527c 	bic.w	r2, r2, #16128	; 0x3f00
 8001442:	f8c3 2200 	str.w	r2, [r3, #512]	; 0x200
 8001446:	f8d3 2200 	ldr.w	r2, [r3, #512]	; 0x200
 800144a:	6a48      	ldr	r0, [r1, #36]	; 0x24
 800144c:	ea42 2200 	orr.w	r2, r2, r0, lsl #8
 8001450:	f8c3 2200 	str.w	r2, [r3, #512]	; 0x200
 8001454:	694a      	ldr	r2, [r1, #20]
 8001456:	f8d3 521c 	ldr.w	r5, [r3, #540]	; 0x21c
 800145a:	2401      	movs	r4, #1
 800145c:	f002 001f 	and.w	r0, r2, #31
 8001460:	fa04 f000 	lsl.w	r0, r4, r0
 8001464:	43c4      	mvns	r4, r0
 8001466:	4025      	ands	r5, r4
 8001468:	f8c3 521c 	str.w	r5, [r3, #540]	; 0x21c
 800146c:	69cd      	ldr	r5, [r1, #28]
 800146e:	2d00      	cmp	r5, #0
 8001470:	d03a      	beq.n	80014e8 <HAL_CAN_ConfigFilter+0xd4>
 8001472:	2d01      	cmp	r5, #1
 8001474:	d115      	bne.n	80014a2 <HAL_CAN_ConfigFilter+0x8e>
 8001476:	f8d3 520c 	ldr.w	r5, [r3, #524]	; 0x20c
 800147a:	4305      	orrs	r5, r0
 800147c:	f8c3 520c 	str.w	r5, [r3, #524]	; 0x20c
 8001480:	00d2      	lsls	r2, r2, #3
 8001482:	680f      	ldr	r7, [r1, #0]
 8001484:	888d      	ldrh	r5, [r1, #4]
 8001486:	688e      	ldr	r6, [r1, #8]
 8001488:	898b      	ldrh	r3, [r1, #12]
 800148a:	f102 4280 	add.w	r2, r2, #1073741824	; 0x40000000
 800148e:	f502 42c8 	add.w	r2, r2, #25600	; 0x6400
 8001492:	ea45 4507 	orr.w	r5, r5, r7, lsl #16
 8001496:	ea43 4306 	orr.w	r3, r3, r6, lsl #16
 800149a:	f8c2 5240 	str.w	r5, [r2, #576]	; 0x240
 800149e:	f8c2 3244 	str.w	r3, [r2, #580]	; 0x244
 80014a2:	698b      	ldr	r3, [r1, #24]
 80014a4:	4a1d      	ldr	r2, [pc, #116]	; (800151c <HAL_CAN_ConfigFilter+0x108>)
 80014a6:	bb9b      	cbnz	r3, 8001510 <HAL_CAN_ConfigFilter+0xfc>
 80014a8:	f8d2 3204 	ldr.w	r3, [r2, #516]	; 0x204
 80014ac:	4023      	ands	r3, r4
 80014ae:	f8c2 3204 	str.w	r3, [r2, #516]	; 0x204
 80014b2:	690b      	ldr	r3, [r1, #16]
 80014b4:	bb2b      	cbnz	r3, 8001502 <HAL_CAN_ConfigFilter+0xee>
 80014b6:	4b19      	ldr	r3, [pc, #100]	; (800151c <HAL_CAN_ConfigFilter+0x108>)
 80014b8:	f8d3 2214 	ldr.w	r2, [r3, #532]	; 0x214
 80014bc:	4014      	ands	r4, r2
 80014be:	f8c3 4214 	str.w	r4, [r3, #532]	; 0x214
 80014c2:	6a0b      	ldr	r3, [r1, #32]
 80014c4:	2b01      	cmp	r3, #1
 80014c6:	d105      	bne.n	80014d4 <HAL_CAN_ConfigFilter+0xc0>
 80014c8:	4a14      	ldr	r2, [pc, #80]	; (800151c <HAL_CAN_ConfigFilter+0x108>)
 80014ca:	f8d2 321c 	ldr.w	r3, [r2, #540]	; 0x21c
 80014ce:	4318      	orrs	r0, r3
 80014d0:	f8c2 021c 	str.w	r0, [r2, #540]	; 0x21c
 80014d4:	4a11      	ldr	r2, [pc, #68]	; (800151c <HAL_CAN_ConfigFilter+0x108>)
 80014d6:	f8d2 3200 	ldr.w	r3, [r2, #512]	; 0x200
 80014da:	f023 0301 	bic.w	r3, r3, #1
 80014de:	2000      	movs	r0, #0
 80014e0:	f8c2 3200 	str.w	r3, [r2, #512]	; 0x200
 80014e4:	bcf0      	pop	{r4, r5, r6, r7}
 80014e6:	4770      	bx	lr
 80014e8:	f8d3 520c 	ldr.w	r5, [r3, #524]	; 0x20c
 80014ec:	4025      	ands	r5, r4
 80014ee:	f8c3 520c 	str.w	r5, [r3, #524]	; 0x20c
 80014f2:	00d2      	lsls	r2, r2, #3
 80014f4:	f102 4280 	add.w	r2, r2, #1073741824	; 0x40000000
 80014f8:	68cf      	ldr	r7, [r1, #12]
 80014fa:	888d      	ldrh	r5, [r1, #4]
 80014fc:	688e      	ldr	r6, [r1, #8]
 80014fe:	880b      	ldrh	r3, [r1, #0]
 8001500:	e7c5      	b.n	800148e <HAL_CAN_ConfigFilter+0x7a>
 8001502:	4a06      	ldr	r2, [pc, #24]	; (800151c <HAL_CAN_ConfigFilter+0x108>)
 8001504:	f8d2 3214 	ldr.w	r3, [r2, #532]	; 0x214
 8001508:	4303      	orrs	r3, r0
 800150a:	f8c2 3214 	str.w	r3, [r2, #532]	; 0x214
 800150e:	e7d8      	b.n	80014c2 <HAL_CAN_ConfigFilter+0xae>
 8001510:	f8d2 3204 	ldr.w	r3, [r2, #516]	; 0x204
 8001514:	4303      	orrs	r3, r0
 8001516:	f8c2 3204 	str.w	r3, [r2, #516]	; 0x204
 800151a:	e7ca      	b.n	80014b2 <HAL_CAN_ConfigFilter+0x9e>
 800151c:	40006400 	.word	0x40006400

08001520 <HAL_CAN_Start>:
 8001520:	b538      	push	{r3, r4, r5, lr}
 8001522:	f890 3020 	ldrb.w	r3, [r0, #32]
 8001526:	2b01      	cmp	r3, #1
 8001528:	d005      	beq.n	8001536 <HAL_CAN_Start+0x16>
 800152a:	6a43      	ldr	r3, [r0, #36]	; 0x24
 800152c:	f443 2300 	orr.w	r3, r3, #524288	; 0x80000
 8001530:	6243      	str	r3, [r0, #36]	; 0x24
 8001532:	2001      	movs	r0, #1
 8001534:	bd38      	pop	{r3, r4, r5, pc}
 8001536:	6802      	ldr	r2, [r0, #0]
 8001538:	2302      	movs	r3, #2
 800153a:	f880 3020 	strb.w	r3, [r0, #32]
 800153e:	6813      	ldr	r3, [r2, #0]
 8001540:	f023 0301 	bic.w	r3, r3, #1
 8001544:	6013      	str	r3, [r2, #0]
 8001546:	4604      	mov	r4, r0
 8001548:	f7ff feca 	bl	80012e0 <HAL_GetTick>
 800154c:	4605      	mov	r5, r0
 800154e:	e004      	b.n	800155a <HAL_CAN_Start+0x3a>
 8001550:	f7ff fec6 	bl	80012e0 <HAL_GetTick>
 8001554:	1b40      	subs	r0, r0, r5
 8001556:	280a      	cmp	r0, #10
 8001558:	d807      	bhi.n	800156a <HAL_CAN_Start+0x4a>
 800155a:	6823      	ldr	r3, [r4, #0]
 800155c:	685b      	ldr	r3, [r3, #4]
 800155e:	f013 0301 	ands.w	r3, r3, #1
 8001562:	d1f5      	bne.n	8001550 <HAL_CAN_Start+0x30>
 8001564:	6263      	str	r3, [r4, #36]	; 0x24
 8001566:	4618      	mov	r0, r3
 8001568:	bd38      	pop	{r3, r4, r5, pc}
 800156a:	6a63      	ldr	r3, [r4, #36]	; 0x24
 800156c:	2205      	movs	r2, #5
 800156e:	f443 3300 	orr.w	r3, r3, #131072	; 0x20000
 8001572:	6263      	str	r3, [r4, #36]	; 0x24
 8001574:	2001      	movs	r0, #1
 8001576:	f884 2020 	strb.w	r2, [r4, #32]
 800157a:	bd38      	pop	{r3, r4, r5, pc}

0800157c <HAL_CAN_AddTxMessage>:
 800157c:	b470      	push	{r4, r5, r6}
 800157e:	f890 4020 	ldrb.w	r4, [r0, #32]
 8001582:	6805      	ldr	r5, [r0, #0]
 8001584:	3c01      	subs	r4, #1
 8001586:	2c01      	cmp	r4, #1
 8001588:	68ae      	ldr	r6, [r5, #8]
 800158a:	d906      	bls.n	800159a <HAL_CAN_AddTxMessage+0x1e>
 800158c:	6a43      	ldr	r3, [r0, #36]	; 0x24
 800158e:	f443 2380 	orr.w	r3, r3, #262144	; 0x40000
 8001592:	6243      	str	r3, [r0, #36]	; 0x24
 8001594:	2001      	movs	r0, #1
 8001596:	bc70      	pop	{r4, r5, r6}
 8001598:	4770      	bx	lr
 800159a:	f016 5fe0 	tst.w	r6, #469762048	; 0x1c000000
 800159e:	d02e      	beq.n	80015fe <HAL_CAN_AddTxMessage+0x82>
 80015a0:	f3c6 6601 	ubfx	r6, r6, #24, #2
 80015a4:	2e03      	cmp	r6, #3
 80015a6:	d031      	beq.n	800160c <HAL_CAN_AddTxMessage+0x90>
 80015a8:	2001      	movs	r0, #1
 80015aa:	40b0      	lsls	r0, r6
 80015ac:	6018      	str	r0, [r3, #0]
 80015ae:	688b      	ldr	r3, [r1, #8]
 80015b0:	bb93      	cbnz	r3, 8001618 <HAL_CAN_AddTxMessage+0x9c>
 80015b2:	680c      	ldr	r4, [r1, #0]
 80015b4:	68c8      	ldr	r0, [r1, #12]
 80015b6:	f106 0318 	add.w	r3, r6, #24
 80015ba:	011b      	lsls	r3, r3, #4
 80015bc:	ea40 5044 	orr.w	r0, r0, r4, lsl #21
 80015c0:	50e8      	str	r0, [r5, r3]
 80015c2:	7d08      	ldrb	r0, [r1, #20]
 80015c4:	6909      	ldr	r1, [r1, #16]
 80015c6:	0136      	lsls	r6, r6, #4
 80015c8:	19ab      	adds	r3, r5, r6
 80015ca:	2801      	cmp	r0, #1
 80015cc:	f8c3 1184 	str.w	r1, [r3, #388]	; 0x184
 80015d0:	d105      	bne.n	80015de <HAL_CAN_AddTxMessage+0x62>
 80015d2:	f8d3 1184 	ldr.w	r1, [r3, #388]	; 0x184
 80015d6:	f441 7180 	orr.w	r1, r1, #256	; 0x100
 80015da:	f8c3 1184 	str.w	r1, [r3, #388]	; 0x184
 80015de:	4435      	add	r5, r6
 80015e0:	6851      	ldr	r1, [r2, #4]
 80015e2:	f8c5 118c 	str.w	r1, [r5, #396]	; 0x18c
 80015e6:	6812      	ldr	r2, [r2, #0]
 80015e8:	f8c5 2188 	str.w	r2, [r5, #392]	; 0x188
 80015ec:	f8d3 2180 	ldr.w	r2, [r3, #384]	; 0x180
 80015f0:	f042 0201 	orr.w	r2, r2, #1
 80015f4:	2000      	movs	r0, #0
 80015f6:	f8c3 2180 	str.w	r2, [r3, #384]	; 0x180
 80015fa:	bc70      	pop	{r4, r5, r6}
 80015fc:	4770      	bx	lr
 80015fe:	6a43      	ldr	r3, [r0, #36]	; 0x24
 8001600:	f443 1300 	orr.w	r3, r3, #2097152	; 0x200000
 8001604:	6243      	str	r3, [r0, #36]	; 0x24
 8001606:	bc70      	pop	{r4, r5, r6}
 8001608:	2001      	movs	r0, #1
 800160a:	4770      	bx	lr
 800160c:	6a43      	ldr	r3, [r0, #36]	; 0x24
 800160e:	f443 0300 	orr.w	r3, r3, #8388608	; 0x800000
 8001612:	6243      	str	r3, [r0, #36]	; 0x24
 8001614:	2001      	movs	r0, #1
 8001616:	e7be      	b.n	8001596 <HAL_CAN_AddTxMessage+0x1a>
 8001618:	68c8      	ldr	r0, [r1, #12]
 800161a:	684c      	ldr	r4, [r1, #4]
 800161c:	4303      	orrs	r3, r0
 800161e:	f106 0018 	add.w	r0, r6, #24
 8001622:	0100      	lsls	r0, r0, #4
 8001624:	ea43 03c4 	orr.w	r3, r3, r4, lsl #3
 8001628:	502b      	str	r3, [r5, r0]
 800162a:	e7ca      	b.n	80015c2 <HAL_CAN_AddTxMessage+0x46>

0800162c <HAL_CAN_GetTxMailboxesFreeLevel>:
 800162c:	f890 3020 	ldrb.w	r3, [r0, #32]
 8001630:	3b01      	subs	r3, #1
 8001632:	2b01      	cmp	r3, #1
 8001634:	d901      	bls.n	800163a <HAL_CAN_GetTxMailboxesFreeLevel+0xe>
 8001636:	2000      	movs	r0, #0
 8001638:	4770      	bx	lr
 800163a:	6803      	ldr	r3, [r0, #0]
 800163c:	6898      	ldr	r0, [r3, #8]
 800163e:	689a      	ldr	r2, [r3, #8]
 8001640:	689b      	ldr	r3, [r3, #8]
 8001642:	0112      	lsls	r2, r2, #4
 8001644:	f3c0 6080 	ubfx	r0, r0, #26, #1
 8001648:	bf48      	it	mi
 800164a:	3001      	addmi	r0, #1
 800164c:	00db      	lsls	r3, r3, #3
 800164e:	d5f3      	bpl.n	8001638 <HAL_CAN_GetTxMailboxesFreeLevel+0xc>
 8001650:	3001      	adds	r0, #1
 8001652:	4770      	bx	lr

08001654 <HAL_CAN_GetRxMessage>:
 8001654:	e92d 41f0 	stmdb	sp!, {r4, r5, r6, r7, r8, lr}
 8001658:	f890 4020 	ldrb.w	r4, [r0, #32]
 800165c:	3c01      	subs	r4, #1
 800165e:	2c01      	cmp	r4, #1
 8001660:	d906      	bls.n	8001670 <HAL_CAN_GetRxMessage+0x1c>
 8001662:	6a43      	ldr	r3, [r0, #36]	; 0x24
 8001664:	f443 2380 	orr.w	r3, r3, #262144	; 0x40000
 8001668:	6243      	str	r3, [r0, #36]	; 0x24
 800166a:	2001      	movs	r0, #1
 800166c:	e8bd 81f0 	ldmia.w	sp!, {r4, r5, r6, r7, r8, pc}
 8001670:	6805      	ldr	r5, [r0, #0]
 8001672:	2900      	cmp	r1, #0
 8001674:	d058      	beq.n	8001728 <HAL_CAN_GetRxMessage+0xd4>
 8001676:	692c      	ldr	r4, [r5, #16]
 8001678:	07a4      	lsls	r4, r4, #30
 800167a:	d058      	beq.n	800172e <HAL_CAN_GetRxMessage+0xda>
 800167c:	010c      	lsls	r4, r1, #4
 800167e:	192e      	adds	r6, r5, r4
 8001680:	f8d6 71b0 	ldr.w	r7, [r6, #432]	; 0x1b0
 8001684:	f007 0704 	and.w	r7, r7, #4
 8001688:	6097      	str	r7, [r2, #8]
 800168a:	2f00      	cmp	r7, #0
 800168c:	d15c      	bne.n	8001748 <HAL_CAN_GetRxMessage+0xf4>
 800168e:	f8d6 71b0 	ldr.w	r7, [r6, #432]	; 0x1b0
 8001692:	0d7f      	lsrs	r7, r7, #21
 8001694:	6017      	str	r7, [r2, #0]
 8001696:	f8d6 e1b0 	ldr.w	lr, [r6, #432]	; 0x1b0
 800169a:	f8d6 c1b4 	ldr.w	ip, [r6, #436]	; 0x1b4
 800169e:	f8d6 71b4 	ldr.w	r7, [r6, #436]	; 0x1b4
 80016a2:	f8d6 61b4 	ldr.w	r6, [r6, #436]	; 0x1b4
 80016a6:	4425      	add	r5, r4
 80016a8:	f00e 0e02 	and.w	lr, lr, #2
 80016ac:	f8d5 81b8 	ldr.w	r8, [r5, #440]	; 0x1b8
 80016b0:	f3c7 2707 	ubfx	r7, r7, #8, #8
 80016b4:	f00c 050f 	and.w	r5, ip, #15
 80016b8:	0c36      	lsrs	r6, r6, #16
 80016ba:	e9c2 e503 	strd	lr, r5, [r2, #12]
 80016be:	e9c2 6705 	strd	r6, r7, [r2, #20]
 80016c2:	f883 8000 	strb.w	r8, [r3]
 80016c6:	6802      	ldr	r2, [r0, #0]
 80016c8:	4422      	add	r2, r4
 80016ca:	f8d2 21b8 	ldr.w	r2, [r2, #440]	; 0x1b8
 80016ce:	0a12      	lsrs	r2, r2, #8
 80016d0:	705a      	strb	r2, [r3, #1]
 80016d2:	6802      	ldr	r2, [r0, #0]
 80016d4:	4422      	add	r2, r4
 80016d6:	f8d2 21b8 	ldr.w	r2, [r2, #440]	; 0x1b8
 80016da:	0c12      	lsrs	r2, r2, #16
 80016dc:	709a      	strb	r2, [r3, #2]
 80016de:	6802      	ldr	r2, [r0, #0]
 80016e0:	4422      	add	r2, r4
 80016e2:	f8d2 21b8 	ldr.w	r2, [r2, #440]	; 0x1b8
 80016e6:	0e12      	lsrs	r2, r2, #24
 80016e8:	70da      	strb	r2, [r3, #3]
 80016ea:	6802      	ldr	r2, [r0, #0]
 80016ec:	4422      	add	r2, r4
 80016ee:	f8d2 21bc 	ldr.w	r2, [r2, #444]	; 0x1bc
 80016f2:	711a      	strb	r2, [r3, #4]
 80016f4:	6802      	ldr	r2, [r0, #0]
 80016f6:	4422      	add	r2, r4
 80016f8:	f8d2 21bc 	ldr.w	r2, [r2, #444]	; 0x1bc
 80016fc:	0a12      	lsrs	r2, r2, #8
 80016fe:	715a      	strb	r2, [r3, #5]
 8001700:	6802      	ldr	r2, [r0, #0]
 8001702:	4422      	add	r2, r4
 8001704:	f8d2 21bc 	ldr.w	r2, [r2, #444]	; 0x1bc
 8001708:	0c12      	lsrs	r2, r2, #16
 800170a:	719a      	strb	r2, [r3, #6]
 800170c:	6802      	ldr	r2, [r0, #0]
 800170e:	4414      	add	r4, r2
 8001710:	f8d4 21bc 	ldr.w	r2, [r4, #444]	; 0x1bc
 8001714:	0e12      	lsrs	r2, r2, #24
 8001716:	71da      	strb	r2, [r3, #7]
 8001718:	6802      	ldr	r2, [r0, #0]
 800171a:	b979      	cbnz	r1, 800173c <HAL_CAN_GetRxMessage+0xe8>
 800171c:	68d3      	ldr	r3, [r2, #12]
 800171e:	f043 0320 	orr.w	r3, r3, #32
 8001722:	4608      	mov	r0, r1
 8001724:	60d3      	str	r3, [r2, #12]
 8001726:	e7a1      	b.n	800166c <HAL_CAN_GetRxMessage+0x18>
 8001728:	68ec      	ldr	r4, [r5, #12]
 800172a:	07a6      	lsls	r6, r4, #30
 800172c:	d1a6      	bne.n	800167c <HAL_CAN_GetRxMessage+0x28>
 800172e:	6a43      	ldr	r3, [r0, #36]	; 0x24
 8001730:	f443 1300 	orr.w	r3, r3, #2097152	; 0x200000
 8001734:	6243      	str	r3, [r0, #36]	; 0x24
 8001736:	2001      	movs	r0, #1
 8001738:	e8bd 81f0 	ldmia.w	sp!, {r4, r5, r6, r7, r8, pc}
 800173c:	6913      	ldr	r3, [r2, #16]
 800173e:	f043 0320 	orr.w	r3, r3, #32
 8001742:	6113      	str	r3, [r2, #16]
 8001744:	2000      	movs	r0, #0
 8001746:	e791      	b.n	800166c <HAL_CAN_GetRxMessage+0x18>
 8001748:	f8d6 71b0 	ldr.w	r7, [r6, #432]	; 0x1b0
 800174c:	08ff      	lsrs	r7, r7, #3
 800174e:	6057      	str	r7, [r2, #4]
 8001750:	e7a1      	b.n	8001696 <HAL_CAN_GetRxMessage+0x42>
 8001752:	bf00      	nop

08001754 <HAL_CAN_GetRxFifoFillLevel>:
 8001754:	f890 3020 	ldrb.w	r3, [r0, #32]
 8001758:	3b01      	subs	r3, #1
 800175a:	2b01      	cmp	r3, #1
 800175c:	d901      	bls.n	8001762 <HAL_CAN_GetRxFifoFillLevel+0xe>
 800175e:	2000      	movs	r0, #0
 8001760:	4770      	bx	lr
 8001762:	6803      	ldr	r3, [r0, #0]
 8001764:	b119      	cbz	r1, 800176e <HAL_CAN_GetRxFifoFillLevel+0x1a>
 8001766:	6918      	ldr	r0, [r3, #16]
 8001768:	f000 0003 	and.w	r0, r0, #3
 800176c:	4770      	bx	lr
 800176e:	68d8      	ldr	r0, [r3, #12]
 8001770:	f000 0003 	and.w	r0, r0, #3
 8001774:	4770      	bx	lr
 8001776:	bf00      	nop

08001778 <HAL_NVIC_SetPriorityGrouping>:
 8001778:	4a07      	ldr	r2, [pc, #28]	; (8001798 <HAL_NVIC_SetPriorityGrouping+0x20>)
 800177a:	68d3      	ldr	r3, [r2, #12]
 800177c:	f64f 01ff 	movw	r1, #63743	; 0xf8ff
 8001780:	400b      	ands	r3, r1
 8001782:	0200      	lsls	r0, r0, #8
 8001784:	f043 63bf 	orr.w	r3, r3, #100139008	; 0x5f80000
 8001788:	f400 60e0 	and.w	r0, r0, #1792	; 0x700
 800178c:	f443 3300 	orr.w	r3, r3, #131072	; 0x20000
 8001790:	4303      	orrs	r3, r0
 8001792:	60d3      	str	r3, [r2, #12]
 8001794:	4770      	bx	lr
 8001796:	bf00      	nop
 8001798:	e000ed00 	.word	0xe000ed00

0800179c <HAL_NVIC_SetPriority>:
 800179c:	4b18      	ldr	r3, [pc, #96]	; (8001800 <HAL_NVIC_SetPriority+0x64>)
 800179e:	68db      	ldr	r3, [r3, #12]
 80017a0:	f3c3 2302 	ubfx	r3, r3, #8, #3
 80017a4:	b430      	push	{r4, r5}
 80017a6:	f1c3 0507 	rsb	r5, r3, #7
 80017aa:	2d04      	cmp	r5, #4
 80017ac:	f103 0404 	add.w	r4, r3, #4
 80017b0:	bf28      	it	cs
 80017b2:	2504      	movcs	r5, #4
 80017b4:	2c06      	cmp	r4, #6
 80017b6:	d919      	bls.n	80017ec <HAL_NVIC_SetPriority+0x50>
 80017b8:	3b03      	subs	r3, #3
 80017ba:	f04f 34ff 	mov.w	r4, #4294967295
 80017be:	409c      	lsls	r4, r3
 80017c0:	ea22 0404 	bic.w	r4, r2, r4
 80017c4:	f04f 32ff 	mov.w	r2, #4294967295
 80017c8:	40aa      	lsls	r2, r5
 80017ca:	ea21 0102 	bic.w	r1, r1, r2
 80017ce:	fa01 f203 	lsl.w	r2, r1, r3
 80017d2:	4322      	orrs	r2, r4
 80017d4:	0112      	lsls	r2, r2, #4
 80017d6:	2800      	cmp	r0, #0
 80017d8:	b2d2      	uxtb	r2, r2
 80017da:	db0a      	blt.n	80017f2 <HAL_NVIC_SetPriority+0x56>
 80017dc:	f100 4060 	add.w	r0, r0, #3758096384	; 0xe0000000
 80017e0:	f500 4061 	add.w	r0, r0, #57600	; 0xe100
 80017e4:	f880 2300 	strb.w	r2, [r0, #768]	; 0x300
 80017e8:	bc30      	pop	{r4, r5}
 80017ea:	4770      	bx	lr
 80017ec:	2400      	movs	r4, #0
 80017ee:	4623      	mov	r3, r4
 80017f0:	e7e8      	b.n	80017c4 <HAL_NVIC_SetPriority+0x28>
 80017f2:	4b04      	ldr	r3, [pc, #16]	; (8001804 <HAL_NVIC_SetPriority+0x68>)
 80017f4:	f000 000f 	and.w	r0, r0, #15
 80017f8:	4403      	add	r3, r0
 80017fa:	761a      	strb	r2, [r3, #24]
 80017fc:	bc30      	pop	{r4, r5}
 80017fe:	4770      	bx	lr
 8001800:	e000ed00 	.word	0xe000ed00
 8001804:	e000ecfc 	.word	0xe000ecfc

08001808 <HAL_NVIC_EnableIRQ>:
 8001808:	2800      	cmp	r0, #0
 800180a:	db07      	blt.n	800181c <HAL_NVIC_EnableIRQ+0x14>
 800180c:	f000 011f 	and.w	r1, r0, #31
 8001810:	2301      	movs	r3, #1
 8001812:	0940      	lsrs	r0, r0, #5
 8001814:	4a02      	ldr	r2, [pc, #8]	; (8001820 <HAL_NVIC_EnableIRQ+0x18>)
 8001816:	408b      	lsls	r3, r1
 8001818:	f842 3020 	str.w	r3, [r2, r0, lsl #2]
 800181c:	4770      	bx	lr
 800181e:	bf00      	nop
 8001820:	e000e100 	.word	0xe000e100

08001824 <HAL_SYSTICK_Config>:
 8001824:	3801      	subs	r0, #1
 8001826:	f1b0 7f80 	cmp.w	r0, #16777216	; 0x1000000
 800182a:	d20e      	bcs.n	800184a <HAL_SYSTICK_Config+0x26>
 800182c:	4b08      	ldr	r3, [pc, #32]	; (8001850 <HAL_SYSTICK_Config+0x2c>)
 800182e:	b410      	push	{r4}
 8001830:	4c08      	ldr	r4, [pc, #32]	; (8001854 <HAL_SYSTICK_Config+0x30>)
 8001832:	6058      	str	r0, [r3, #4]
 8001834:	20f0      	movs	r0, #240	; 0xf0
 8001836:	f884 0023 	strb.w	r0, [r4, #35]	; 0x23
 800183a:	2200      	movs	r2, #0
 800183c:	2107      	movs	r1, #7
 800183e:	4610      	mov	r0, r2
 8001840:	609a      	str	r2, [r3, #8]
 8001842:	6019      	str	r1, [r3, #0]
 8001844:	f85d 4b04 	ldr.w	r4, [sp], #4
 8001848:	4770      	bx	lr
 800184a:	2001      	movs	r0, #1
 800184c:	4770      	bx	lr
 800184e:	bf00      	nop
 8001850:	e000e010 	.word	0xe000e010
 8001854:	e000ed00 	.word	0xe000ed00

08001858 <HAL_GPIO_Init>:
 8001858:	e92d 4ff0 	stmdb	sp!, {r4, r5, r6, r7, r8, r9, sl, fp, lr}
 800185c:	f8d1 8000 	ldr.w	r8, [r1]
 8001860:	f8df e1f4 	ldr.w	lr, [pc, #500]	; 8001a58 <HAL_GPIO_Init+0x200>
 8001864:	b083      	sub	sp, #12
 8001866:	2400      	movs	r4, #0
 8001868:	e003      	b.n	8001872 <HAL_GPIO_Init+0x1a>
 800186a:	3401      	adds	r4, #1
 800186c:	2c10      	cmp	r4, #16
 800186e:	f000 808c 	beq.w	800198a <HAL_GPIO_Init+0x132>
 8001872:	2301      	movs	r3, #1
 8001874:	40a3      	lsls	r3, r4
 8001876:	ea08 0203 	and.w	r2, r8, r3
 800187a:	4293      	cmp	r3, r2
 800187c:	d1f5      	bne.n	800186a <HAL_GPIO_Init+0x12>
 800187e:	e9d1 6501 	ldrd	r6, r5, [r1, #4]
 8001882:	f026 0910 	bic.w	r9, r6, #16
 8001886:	ea4f 0c44 	mov.w	ip, r4, lsl #1
 800188a:	2303      	movs	r3, #3
 800188c:	f109 37ff 	add.w	r7, r9, #4294967295
 8001890:	fa03 f30c 	lsl.w	r3, r3, ip
 8001894:	2f01      	cmp	r7, #1
 8001896:	ea6f 0303 	mvn.w	r3, r3
 800189a:	fa05 f50c 	lsl.w	r5, r5, ip
 800189e:	d977      	bls.n	8001990 <HAL_GPIO_Init+0x138>
 80018a0:	68c7      	ldr	r7, [r0, #12]
 80018a2:	401f      	ands	r7, r3
 80018a4:	433d      	orrs	r5, r7
 80018a6:	60c5      	str	r5, [r0, #12]
 80018a8:	6807      	ldr	r7, [r0, #0]
 80018aa:	f006 0503 	and.w	r5, r6, #3
 80018ae:	401f      	ands	r7, r3
 80018b0:	fa05 f30c 	lsl.w	r3, r5, ip
 80018b4:	433b      	orrs	r3, r7
 80018b6:	6003      	str	r3, [r0, #0]
 80018b8:	00f3      	lsls	r3, r6, #3
 80018ba:	d5d6      	bpl.n	800186a <HAL_GPIO_Init+0x12>
 80018bc:	4d5f      	ldr	r5, [pc, #380]	; (8001a3c <HAL_GPIO_Init+0x1e4>)
 80018be:	2300      	movs	r3, #0
 80018c0:	9301      	str	r3, [sp, #4]
 80018c2:	6c6b      	ldr	r3, [r5, #68]	; 0x44
 80018c4:	f443 4380 	orr.w	r3, r3, #16384	; 0x4000
 80018c8:	646b      	str	r3, [r5, #68]	; 0x44
 80018ca:	6c6d      	ldr	r5, [r5, #68]	; 0x44
 80018cc:	f024 0303 	bic.w	r3, r4, #3
 80018d0:	f405 4580 	and.w	r5, r5, #16384	; 0x4000
 80018d4:	f103 4380 	add.w	r3, r3, #1073741824	; 0x40000000
 80018d8:	9501      	str	r5, [sp, #4]
 80018da:	f503 339c 	add.w	r3, r3, #79872	; 0x13800
 80018de:	f004 0503 	and.w	r5, r4, #3
 80018e2:	ea4f 0985 	mov.w	r9, r5, lsl #2
 80018e6:	4d56      	ldr	r5, [pc, #344]	; (8001a40 <HAL_GPIO_Init+0x1e8>)
 80018e8:	9f01      	ldr	r7, [sp, #4]
 80018ea:	f8d3 c008 	ldr.w	ip, [r3, #8]
 80018ee:	270f      	movs	r7, #15
 80018f0:	fa07 f709 	lsl.w	r7, r7, r9
 80018f4:	42a8      	cmp	r0, r5
 80018f6:	ea2c 0707 	bic.w	r7, ip, r7
 80018fa:	d01f      	beq.n	800193c <HAL_GPIO_Init+0xe4>
 80018fc:	f505 6580 	add.w	r5, r5, #1024	; 0x400
 8001900:	42a8      	cmp	r0, r5
 8001902:	d076      	beq.n	80019f2 <HAL_GPIO_Init+0x19a>
 8001904:	4d4f      	ldr	r5, [pc, #316]	; (8001a44 <HAL_GPIO_Init+0x1ec>)
 8001906:	42a8      	cmp	r0, r5
 8001908:	d079      	beq.n	80019fe <HAL_GPIO_Init+0x1a6>
 800190a:	4d4f      	ldr	r5, [pc, #316]	; (8001a48 <HAL_GPIO_Init+0x1f0>)
 800190c:	42a8      	cmp	r0, r5
 800190e:	d07c      	beq.n	8001a0a <HAL_GPIO_Init+0x1b2>
 8001910:	4d4e      	ldr	r5, [pc, #312]	; (8001a4c <HAL_GPIO_Init+0x1f4>)
 8001912:	42a8      	cmp	r0, r5
 8001914:	d07f      	beq.n	8001a16 <HAL_GPIO_Init+0x1be>
 8001916:	4d4e      	ldr	r5, [pc, #312]	; (8001a50 <HAL_GPIO_Init+0x1f8>)
 8001918:	42a8      	cmp	r0, r5
 800191a:	f000 8082 	beq.w	8001a22 <HAL_GPIO_Init+0x1ca>
 800191e:	4d4d      	ldr	r5, [pc, #308]	; (8001a54 <HAL_GPIO_Init+0x1fc>)
 8001920:	42a8      	cmp	r0, r5
 8001922:	f000 8084 	beq.w	8001a2e <HAL_GPIO_Init+0x1d6>
 8001926:	f8df c134 	ldr.w	ip, [pc, #308]	; 8001a5c <HAL_GPIO_Init+0x204>
 800192a:	4560      	cmp	r0, ip
 800192c:	bf0c      	ite	eq
 800192e:	f04f 0c07 	moveq.w	ip, #7
 8001932:	f04f 0c08 	movne.w	ip, #8
 8001936:	fa0c f509 	lsl.w	r5, ip, r9
 800193a:	432f      	orrs	r7, r5
 800193c:	609f      	str	r7, [r3, #8]
 800193e:	f8de 3000 	ldr.w	r3, [lr]
 8001942:	43d5      	mvns	r5, r2
 8001944:	03f7      	lsls	r7, r6, #15
 8001946:	bf54      	ite	pl
 8001948:	402b      	andpl	r3, r5
 800194a:	4313      	orrmi	r3, r2
 800194c:	f8ce 3000 	str.w	r3, [lr]
 8001950:	f8de 3004 	ldr.w	r3, [lr, #4]
 8001954:	03b7      	lsls	r7, r6, #14
 8001956:	bf54      	ite	pl
 8001958:	402b      	andpl	r3, r5
 800195a:	4313      	orrmi	r3, r2
 800195c:	f8ce 3004 	str.w	r3, [lr, #4]
 8001960:	f8de 3008 	ldr.w	r3, [lr, #8]
 8001964:	02f7      	lsls	r7, r6, #11
 8001966:	bf54      	ite	pl
 8001968:	402b      	andpl	r3, r5
 800196a:	4313      	orrmi	r3, r2
 800196c:	f8ce 3008 	str.w	r3, [lr, #8]
 8001970:	f8de 300c 	ldr.w	r3, [lr, #12]
 8001974:	02b6      	lsls	r6, r6, #10
 8001976:	f104 0401 	add.w	r4, r4, #1
 800197a:	bf54      	ite	pl
 800197c:	402b      	andpl	r3, r5
 800197e:	4313      	orrmi	r3, r2
 8001980:	2c10      	cmp	r4, #16
 8001982:	f8ce 300c 	str.w	r3, [lr, #12]
 8001986:	f47f af74 	bne.w	8001872 <HAL_GPIO_Init+0x1a>
 800198a:	b003      	add	sp, #12
 800198c:	e8bd 8ff0 	ldmia.w	sp!, {r4, r5, r6, r7, r8, r9, sl, fp, pc}
 8001990:	6887      	ldr	r7, [r0, #8]
 8001992:	ea07 0a03 	and.w	sl, r7, r3
 8001996:	68cf      	ldr	r7, [r1, #12]
 8001998:	fa07 f70c 	lsl.w	r7, r7, ip
 800199c:	ea47 070a 	orr.w	r7, r7, sl
 80019a0:	6087      	str	r7, [r0, #8]
 80019a2:	f8d0 a004 	ldr.w	sl, [r0, #4]
 80019a6:	f3c6 1700 	ubfx	r7, r6, #4, #1
 80019aa:	ea2a 0a02 	bic.w	sl, sl, r2
 80019ae:	40a7      	lsls	r7, r4
 80019b0:	ea47 070a 	orr.w	r7, r7, sl
 80019b4:	6047      	str	r7, [r0, #4]
 80019b6:	68c7      	ldr	r7, [r0, #12]
 80019b8:	401f      	ands	r7, r3
 80019ba:	433d      	orrs	r5, r7
 80019bc:	f1b9 0f02 	cmp.w	r9, #2
 80019c0:	60c5      	str	r5, [r0, #12]
 80019c2:	f47f af71 	bne.w	80018a8 <HAL_GPIO_Init+0x50>
 80019c6:	ea4f 09d4 	mov.w	r9, r4, lsr #3
 80019ca:	eb00 0989 	add.w	r9, r0, r9, lsl #2
 80019ce:	f004 0707 	and.w	r7, r4, #7
 80019d2:	f8d9 5020 	ldr.w	r5, [r9, #32]
 80019d6:	00bf      	lsls	r7, r7, #2
 80019d8:	f04f 0b0f 	mov.w	fp, #15
 80019dc:	fa0b fb07 	lsl.w	fp, fp, r7
 80019e0:	ea25 0a0b 	bic.w	sl, r5, fp
 80019e4:	690d      	ldr	r5, [r1, #16]
 80019e6:	40bd      	lsls	r5, r7
 80019e8:	ea45 050a 	orr.w	r5, r5, sl
 80019ec:	f8c9 5020 	str.w	r5, [r9, #32]
 80019f0:	e75a      	b.n	80018a8 <HAL_GPIO_Init+0x50>
 80019f2:	f04f 0c01 	mov.w	ip, #1
 80019f6:	fa0c f509 	lsl.w	r5, ip, r9
 80019fa:	432f      	orrs	r7, r5
 80019fc:	e79e      	b.n	800193c <HAL_GPIO_Init+0xe4>
 80019fe:	f04f 0c02 	mov.w	ip, #2
 8001a02:	fa0c f509 	lsl.w	r5, ip, r9
 8001a06:	432f      	orrs	r7, r5
 8001a08:	e798      	b.n	800193c <HAL_GPIO_Init+0xe4>
 8001a0a:	f04f 0c03 	mov.w	ip, #3
 8001a0e:	fa0c f509 	lsl.w	r5, ip, r9
 8001a12:	432f      	orrs	r7, r5
 8001a14:	e792      	b.n	800193c <HAL_GPIO_Init+0xe4>
 8001a16:	f04f 0c04 	mov.w	ip, #4
 8001a1a:	fa0c f509 	lsl.w	r5, ip, r9
 8001a1e:	432f      	orrs	r7, r5
 8001a20:	e78c      	b.n	800193c <HAL_GPIO_Init+0xe4>
 8001a22:	f04f 0c05 	mov.w	ip, #5
 8001a26:	fa0c f509 	lsl.w	r5, ip, r9
 8001a2a:	432f      	orrs	r7, r5
 8001a2c:	e786      	b.n	800193c <HAL_GPIO_Init+0xe4>
 8001a2e:	f04f 0c06 	mov.w	ip, #6
 8001a32:	fa0c f509 	lsl.w	r5, ip, r9
 8001a36:	432f      	orrs	r7, r5
 8001a38:	e780      	b.n	800193c <HAL_GPIO_Init+0xe4>
 8001a3a:	bf00      	nop
 8001a3c:	40023800 	.word	0x40023800
 8001a40:	40020000 	.word	0x40020000
 8001a44:	40020800 	.word	0x40020800
 8001a48:	40020c00 	.word	0x40020c00
 8001a4c:	40021000 	.word	0x40021000
 8001a50:	40021400 	.word	0x40021400
 8001a54:	40021800 	.word	0x40021800
 8001a58:	40013c00 	.word	0x40013c00
 8001a5c:	40021c00 	.word	0x40021c00

08001a60 <HAL_GPIO_WritePin>:
 8001a60:	b902      	cbnz	r2, 8001a64 <HAL_GPIO_WritePin+0x4>
 8001a62:	0409      	lsls	r1, r1, #16
 8001a64:	6181      	str	r1, [r0, #24]
 8001a66:	4770      	bx	lr

08001a68 <HAL_GPIO_TogglePin>:
 8001a68:	6943      	ldr	r3, [r0, #20]
 8001a6a:	ea31 0303 	bics.w	r3, r1, r3
 8001a6e:	bf08      	it	eq
 8001a70:	0409      	lsleq	r1, r1, #16
 8001a72:	6181      	str	r1, [r0, #24]
 8001a74:	4770      	bx	lr
 8001a76:	bf00      	nop

08001a78 <HAL_I2C_Init>:
 8001a78:	2800      	cmp	r0, #0
 8001a7a:	f000 809f 	beq.w	8001bbc <HAL_I2C_Init+0x144>
 8001a7e:	b5f8      	push	{r3, r4, r5, r6, r7, lr}
 8001a80:	f890 303d 	ldrb.w	r3, [r0, #61]	; 0x3d
 8001a84:	4604      	mov	r4, r0
 8001a86:	f003 02ff 	and.w	r2, r3, #255	; 0xff
 8001a8a:	2b00      	cmp	r3, #0
 8001a8c:	f000 808f 	beq.w	8001bae <HAL_I2C_Init+0x136>
 8001a90:	6823      	ldr	r3, [r4, #0]
 8001a92:	2224      	movs	r2, #36	; 0x24
 8001a94:	f884 203d 	strb.w	r2, [r4, #61]	; 0x3d
 8001a98:	681a      	ldr	r2, [r3, #0]
 8001a9a:	f022 0201 	bic.w	r2, r2, #1
 8001a9e:	601a      	str	r2, [r3, #0]
 8001aa0:	681a      	ldr	r2, [r3, #0]
 8001aa2:	f442 4200 	orr.w	r2, r2, #32768	; 0x8000
 8001aa6:	601a      	str	r2, [r3, #0]
 8001aa8:	681a      	ldr	r2, [r3, #0]
 8001aaa:	f422 4200 	bic.w	r2, r2, #32768	; 0x8000
 8001aae:	601a      	str	r2, [r3, #0]
 8001ab0:	f000 fddc 	bl	800266c <HAL_RCC_GetPCLK1Freq>
 8001ab4:	6861      	ldr	r1, [r4, #4]
 8001ab6:	4b4b      	ldr	r3, [pc, #300]	; (8001be4 <HAL_I2C_Init+0x16c>)
 8001ab8:	4299      	cmp	r1, r3
 8001aba:	d84b      	bhi.n	8001b54 <HAL_I2C_Init+0xdc>
 8001abc:	4b4a      	ldr	r3, [pc, #296]	; (8001be8 <HAL_I2C_Init+0x170>)
 8001abe:	4298      	cmp	r0, r3
 8001ac0:	d97a      	bls.n	8001bb8 <HAL_I2C_Init+0x140>
 8001ac2:	6822      	ldr	r2, [r4, #0]
 8001ac4:	4b49      	ldr	r3, [pc, #292]	; (8001bec <HAL_I2C_Init+0x174>)
 8001ac6:	6855      	ldr	r5, [r2, #4]
 8001ac8:	fba3 6300 	umull	r6, r3, r3, r0
 8001acc:	0c9b      	lsrs	r3, r3, #18
 8001ace:	f025 053f 	bic.w	r5, r5, #63	; 0x3f
 8001ad2:	431d      	orrs	r5, r3
 8001ad4:	6055      	str	r5, [r2, #4]
 8001ad6:	6a15      	ldr	r5, [r2, #32]
 8001ad8:	3301      	adds	r3, #1
 8001ada:	f025 053f 	bic.w	r5, r5, #63	; 0x3f
 8001ade:	432b      	orrs	r3, r5
 8001ae0:	6213      	str	r3, [r2, #32]
 8001ae2:	69d5      	ldr	r5, [r2, #28]
 8001ae4:	0049      	lsls	r1, r1, #1
 8001ae6:	1e43      	subs	r3, r0, #1
 8001ae8:	fbb3 f3f1 	udiv	r3, r3, r1
 8001aec:	3301      	adds	r3, #1
 8001aee:	f3c3 030b 	ubfx	r3, r3, #0, #12
 8001af2:	f425 454f 	bic.w	r5, r5, #52992	; 0xcf00
 8001af6:	2b04      	cmp	r3, #4
 8001af8:	bf38      	it	cc
 8001afa:	2304      	movcc	r3, #4
 8001afc:	f025 05ff 	bic.w	r5, r5, #255	; 0xff
 8001b00:	432b      	orrs	r3, r5
 8001b02:	61d3      	str	r3, [r2, #28]
 8001b04:	e9d4 3507 	ldrd	r3, r5, [r4, #28]
 8001b08:	6810      	ldr	r0, [r2, #0]
 8001b0a:	6921      	ldr	r1, [r4, #16]
 8001b0c:	f020 00c0 	bic.w	r0, r0, #192	; 0xc0
 8001b10:	432b      	orrs	r3, r5
 8001b12:	4303      	orrs	r3, r0
 8001b14:	6013      	str	r3, [r2, #0]
 8001b16:	6890      	ldr	r0, [r2, #8]
 8001b18:	68e5      	ldr	r5, [r4, #12]
 8001b1a:	6963      	ldr	r3, [r4, #20]
 8001b1c:	f420 4003 	bic.w	r0, r0, #33536	; 0x8300
 8001b20:	f020 00ff 	bic.w	r0, r0, #255	; 0xff
 8001b24:	4329      	orrs	r1, r5
 8001b26:	4301      	orrs	r1, r0
 8001b28:	6091      	str	r1, [r2, #8]
 8001b2a:	68d1      	ldr	r1, [r2, #12]
 8001b2c:	69a0      	ldr	r0, [r4, #24]
 8001b2e:	f021 01ff 	bic.w	r1, r1, #255	; 0xff
 8001b32:	4303      	orrs	r3, r0
 8001b34:	430b      	orrs	r3, r1
 8001b36:	60d3      	str	r3, [r2, #12]
 8001b38:	6811      	ldr	r1, [r2, #0]
 8001b3a:	2300      	movs	r3, #0
 8001b3c:	f041 0101 	orr.w	r1, r1, #1
 8001b40:	2520      	movs	r5, #32
 8001b42:	6011      	str	r1, [r2, #0]
 8001b44:	4618      	mov	r0, r3
 8001b46:	6423      	str	r3, [r4, #64]	; 0x40
 8001b48:	f884 503d 	strb.w	r5, [r4, #61]	; 0x3d
 8001b4c:	6323      	str	r3, [r4, #48]	; 0x30
 8001b4e:	f884 303e 	strb.w	r3, [r4, #62]	; 0x3e
 8001b52:	bdf8      	pop	{r3, r4, r5, r6, r7, pc}
 8001b54:	4b26      	ldr	r3, [pc, #152]	; (8001bf0 <HAL_I2C_Init+0x178>)
 8001b56:	4298      	cmp	r0, r3
 8001b58:	d92e      	bls.n	8001bb8 <HAL_I2C_Init+0x140>
 8001b5a:	6822      	ldr	r2, [r4, #0]
 8001b5c:	4b23      	ldr	r3, [pc, #140]	; (8001bec <HAL_I2C_Init+0x174>)
 8001b5e:	6856      	ldr	r6, [r2, #4]
 8001b60:	4f24      	ldr	r7, [pc, #144]	; (8001bf4 <HAL_I2C_Init+0x17c>)
 8001b62:	fba3 5300 	umull	r5, r3, r3, r0
 8001b66:	0c9d      	lsrs	r5, r3, #18
 8001b68:	f026 063f 	bic.w	r6, r6, #63	; 0x3f
 8001b6c:	432e      	orrs	r6, r5
 8001b6e:	f44f 7396 	mov.w	r3, #300	; 0x12c
 8001b72:	6056      	str	r6, [r2, #4]
 8001b74:	fb03 f305 	mul.w	r3, r3, r5
 8001b78:	fba7 5303 	umull	r5, r3, r7, r3
 8001b7c:	6a15      	ldr	r5, [r2, #32]
 8001b7e:	68a6      	ldr	r6, [r4, #8]
 8001b80:	099b      	lsrs	r3, r3, #6
 8001b82:	f025 053f 	bic.w	r5, r5, #63	; 0x3f
 8001b86:	3301      	adds	r3, #1
 8001b88:	432b      	orrs	r3, r5
 8001b8a:	6213      	str	r3, [r2, #32]
 8001b8c:	69d5      	ldr	r5, [r2, #28]
 8001b8e:	f425 454f 	bic.w	r5, r5, #52992	; 0xcf00
 8001b92:	3801      	subs	r0, #1
 8001b94:	f025 05ff 	bic.w	r5, r5, #255	; 0xff
 8001b98:	b996      	cbnz	r6, 8001bc0 <HAL_I2C_Init+0x148>
 8001b9a:	eb01 0141 	add.w	r1, r1, r1, lsl #1
 8001b9e:	fbb0 f0f1 	udiv	r0, r0, r1
 8001ba2:	3001      	adds	r0, #1
 8001ba4:	f3c0 000b 	ubfx	r0, r0, #0, #12
 8001ba8:	b9c0      	cbnz	r0, 8001bdc <HAL_I2C_Init+0x164>
 8001baa:	2301      	movs	r3, #1
 8001bac:	e7a8      	b.n	8001b00 <HAL_I2C_Init+0x88>
 8001bae:	f880 203c 	strb.w	r2, [r0, #60]	; 0x3c
 8001bb2:	f7ff fa69 	bl	8001088 <HAL_I2C_MspInit>
 8001bb6:	e76b      	b.n	8001a90 <HAL_I2C_Init+0x18>
 8001bb8:	2001      	movs	r0, #1
 8001bba:	bdf8      	pop	{r3, r4, r5, r6, r7, pc}
 8001bbc:	2001      	movs	r0, #1
 8001bbe:	4770      	bx	lr
 8001bc0:	eb01 0181 	add.w	r1, r1, r1, lsl #2
 8001bc4:	eb01 0181 	add.w	r1, r1, r1, lsl #2
 8001bc8:	fbb0 f0f1 	udiv	r0, r0, r1
 8001bcc:	3001      	adds	r0, #1
 8001bce:	f3c0 000b 	ubfx	r0, r0, #0, #12
 8001bd2:	2800      	cmp	r0, #0
 8001bd4:	d0e9      	beq.n	8001baa <HAL_I2C_Init+0x132>
 8001bd6:	f440 4340 	orr.w	r3, r0, #49152	; 0xc000
 8001bda:	e791      	b.n	8001b00 <HAL_I2C_Init+0x88>
 8001bdc:	f440 4300 	orr.w	r3, r0, #32768	; 0x8000
 8001be0:	e78e      	b.n	8001b00 <HAL_I2C_Init+0x88>
 8001be2:	bf00      	nop
 8001be4:	000186a0 	.word	0x000186a0
 8001be8:	001e847f 	.word	0x001e847f
 8001bec:	431bde83 	.word	0x431bde83
 8001bf0:	003d08ff 	.word	0x003d08ff
 8001bf4:	10624dd3 	.word	0x10624dd3

08001bf8 <HAL_I2C_Master_Transmit>:
 8001bf8:	e92d 47f0 	stmdb	sp!, {r4, r5, r6, r7, r8, r9, sl, lr}
 8001bfc:	4604      	mov	r4, r0
 8001bfe:	b082      	sub	sp, #8
 8001c00:	4699      	mov	r9, r3
 8001c02:	460f      	mov	r7, r1
 8001c04:	4690      	mov	r8, r2
 8001c06:	9d0a      	ldr	r5, [sp, #40]	; 0x28
 8001c08:	f7ff fb6a 	bl	80012e0 <HAL_GetTick>
 8001c0c:	f894 303d 	ldrb.w	r3, [r4, #61]	; 0x3d
 8001c10:	2b20      	cmp	r3, #32
 8001c12:	d003      	beq.n	8001c1c <HAL_I2C_Master_Transmit+0x24>
 8001c14:	2002      	movs	r0, #2
 8001c16:	b002      	add	sp, #8
 8001c18:	e8bd 87f0 	ldmia.w	sp!, {r4, r5, r6, r7, r8, r9, sl, pc}
 8001c1c:	4606      	mov	r6, r0
 8001c1e:	e005      	b.n	8001c2c <HAL_I2C_Master_Transmit+0x34>
 8001c20:	f7ff fb5e 	bl	80012e0 <HAL_GetTick>
 8001c24:	1b80      	subs	r0, r0, r6
 8001c26:	2819      	cmp	r0, #25
 8001c28:	f200 80e1 	bhi.w	8001dee <HAL_I2C_Master_Transmit+0x1f6>
 8001c2c:	6823      	ldr	r3, [r4, #0]
 8001c2e:	699a      	ldr	r2, [r3, #24]
 8001c30:	43d2      	mvns	r2, r2
 8001c32:	f012 0a02 	ands.w	sl, r2, #2
 8001c36:	d0f3      	beq.n	8001c20 <HAL_I2C_Master_Transmit+0x28>
 8001c38:	f894 203c 	ldrb.w	r2, [r4, #60]	; 0x3c
 8001c3c:	2a01      	cmp	r2, #1
 8001c3e:	d0e9      	beq.n	8001c14 <HAL_I2C_Master_Transmit+0x1c>
 8001c40:	681a      	ldr	r2, [r3, #0]
 8001c42:	2101      	movs	r1, #1
 8001c44:	07d2      	lsls	r2, r2, #31
 8001c46:	f884 103c 	strb.w	r1, [r4, #60]	; 0x3c
 8001c4a:	d402      	bmi.n	8001c52 <HAL_I2C_Master_Transmit+0x5a>
 8001c4c:	681a      	ldr	r2, [r3, #0]
 8001c4e:	430a      	orrs	r2, r1
 8001c50:	601a      	str	r2, [r3, #0]
 8001c52:	681a      	ldr	r2, [r3, #0]
 8001c54:	48a0      	ldr	r0, [pc, #640]	; (8001ed8 <HAL_I2C_Master_Transmit+0x2e0>)
 8001c56:	f422 6200 	bic.w	r2, r2, #2048	; 0x800
 8001c5a:	601a      	str	r2, [r3, #0]
 8001c5c:	2221      	movs	r2, #33	; 0x21
 8001c5e:	f884 203d 	strb.w	r2, [r4, #61]	; 0x3d
 8001c62:	2210      	movs	r2, #16
 8001c64:	f884 203e 	strb.w	r2, [r4, #62]	; 0x3e
 8001c68:	2200      	movs	r2, #0
 8001c6a:	6422      	str	r2, [r4, #64]	; 0x40
 8001c6c:	f8a4 902a 	strh.w	r9, [r4, #42]	; 0x2a
 8001c70:	8d61      	ldrh	r1, [r4, #42]	; 0x2a
 8001c72:	62e0      	str	r0, [r4, #44]	; 0x2c
 8001c74:	6ae2      	ldr	r2, [r4, #44]	; 0x2c
 8001c76:	f8c4 8024 	str.w	r8, [r4, #36]	; 0x24
 8001c7a:	2a08      	cmp	r2, #8
 8001c7c:	8521      	strh	r1, [r4, #40]	; 0x28
 8001c7e:	d071      	beq.n	8001d64 <HAL_I2C_Master_Transmit+0x16c>
 8001c80:	2a01      	cmp	r2, #1
 8001c82:	d06f      	beq.n	8001d64 <HAL_I2C_Master_Transmit+0x16c>
 8001c84:	4282      	cmp	r2, r0
 8001c86:	d06d      	beq.n	8001d64 <HAL_I2C_Master_Transmit+0x16c>
 8001c88:	6b22      	ldr	r2, [r4, #48]	; 0x30
 8001c8a:	2a12      	cmp	r2, #18
 8001c8c:	d06a      	beq.n	8001d64 <HAL_I2C_Master_Transmit+0x16c>
 8001c8e:	1c68      	adds	r0, r5, #1
 8001c90:	f040 808b 	bne.w	8001daa <HAL_I2C_Master_Transmit+0x1b2>
 8001c94:	695a      	ldr	r2, [r3, #20]
 8001c96:	07d1      	lsls	r1, r2, #31
 8001c98:	d5fc      	bpl.n	8001c94 <HAL_I2C_Master_Transmit+0x9c>
 8001c9a:	6922      	ldr	r2, [r4, #16]
 8001c9c:	f5b2 4f80 	cmp.w	r2, #16384	; 0x4000
 8001ca0:	f040 80c9 	bne.w	8001e36 <HAL_I2C_Master_Transmit+0x23e>
 8001ca4:	f007 07fe 	and.w	r7, r7, #254	; 0xfe
 8001ca8:	611f      	str	r7, [r3, #16]
 8001caa:	1c6f      	adds	r7, r5, #1
 8001cac:	d004      	beq.n	8001cb8 <HAL_I2C_Master_Transmit+0xc0>
 8001cae:	e0e9      	b.n	8001e84 <HAL_I2C_Master_Transmit+0x28c>
 8001cb0:	695a      	ldr	r2, [r3, #20]
 8001cb2:	0551      	lsls	r1, r2, #21
 8001cb4:	f100 80a9 	bmi.w	8001e0a <HAL_I2C_Master_Transmit+0x212>
 8001cb8:	695a      	ldr	r2, [r3, #20]
 8001cba:	0790      	lsls	r0, r2, #30
 8001cbc:	d5f8      	bpl.n	8001cb0 <HAL_I2C_Master_Transmit+0xb8>
 8001cbe:	2200      	movs	r2, #0
 8001cc0:	9201      	str	r2, [sp, #4]
 8001cc2:	695a      	ldr	r2, [r3, #20]
 8001cc4:	9201      	str	r2, [sp, #4]
 8001cc6:	699a      	ldr	r2, [r3, #24]
 8001cc8:	9201      	str	r2, [sp, #4]
 8001cca:	9a01      	ldr	r2, [sp, #4]
 8001ccc:	8d22      	ldrh	r2, [r4, #40]	; 0x28
 8001cce:	2a00      	cmp	r2, #0
 8001cd0:	f000 80e7 	beq.w	8001ea2 <HAL_I2C_Master_Transmit+0x2aa>
 8001cd4:	1c68      	adds	r0, r5, #1
 8001cd6:	d003      	beq.n	8001ce0 <HAL_I2C_Master_Transmit+0xe8>
 8001cd8:	e049      	b.n	8001d6e <HAL_I2C_Master_Transmit+0x176>
 8001cda:	695a      	ldr	r2, [r3, #20]
 8001cdc:	0552      	lsls	r2, r2, #21
 8001cde:	d42a      	bmi.n	8001d36 <HAL_I2C_Master_Transmit+0x13e>
 8001ce0:	695a      	ldr	r2, [r3, #20]
 8001ce2:	0611      	lsls	r1, r2, #24
 8001ce4:	d5f9      	bpl.n	8001cda <HAL_I2C_Master_Transmit+0xe2>
 8001ce6:	6a67      	ldr	r7, [r4, #36]	; 0x24
 8001ce8:	f8b4 c028 	ldrh.w	ip, [r4, #40]	; 0x28
 8001cec:	4638      	mov	r0, r7
 8001cee:	f10c 31ff 	add.w	r1, ip, #4294967295
 8001cf2:	f810 2b01 	ldrb.w	r2, [r0], #1
 8001cf6:	611a      	str	r2, [r3, #16]
 8001cf8:	8d62      	ldrh	r2, [r4, #42]	; 0x2a
 8001cfa:	6260      	str	r0, [r4, #36]	; 0x24
 8001cfc:	3a01      	subs	r2, #1
 8001cfe:	b292      	uxth	r2, r2
 8001d00:	8562      	strh	r2, [r4, #42]	; 0x2a
 8001d02:	6958      	ldr	r0, [r3, #20]
 8001d04:	b289      	uxth	r1, r1
 8001d06:	0740      	lsls	r0, r0, #29
 8001d08:	8521      	strh	r1, [r4, #40]	; 0x28
 8001d0a:	d50c      	bpl.n	8001d26 <HAL_I2C_Master_Transmit+0x12e>
 8001d0c:	b159      	cbz	r1, 8001d26 <HAL_I2C_Master_Transmit+0x12e>
 8001d0e:	787a      	ldrb	r2, [r7, #1]
 8001d10:	611a      	str	r2, [r3, #16]
 8001d12:	8d62      	ldrh	r2, [r4, #42]	; 0x2a
 8001d14:	3a01      	subs	r2, #1
 8001d16:	f1ac 0c02 	sub.w	ip, ip, #2
 8001d1a:	3702      	adds	r7, #2
 8001d1c:	b292      	uxth	r2, r2
 8001d1e:	f8a4 c028 	strh.w	ip, [r4, #40]	; 0x28
 8001d22:	6267      	str	r7, [r4, #36]	; 0x24
 8001d24:	8562      	strh	r2, [r4, #42]	; 0x2a
 8001d26:	1c6f      	adds	r7, r5, #1
 8001d28:	d130      	bne.n	8001d8c <HAL_I2C_Master_Transmit+0x194>
 8001d2a:	695a      	ldr	r2, [r3, #20]
 8001d2c:	0750      	lsls	r0, r2, #29
 8001d2e:	d4cd      	bmi.n	8001ccc <HAL_I2C_Master_Transmit+0xd4>
 8001d30:	695a      	ldr	r2, [r3, #20]
 8001d32:	0551      	lsls	r1, r2, #21
 8001d34:	d5f9      	bpl.n	8001d2a <HAL_I2C_Master_Transmit+0x132>
 8001d36:	2200      	movs	r2, #0
 8001d38:	f46f 6080 	mvn.w	r0, #1024	; 0x400
 8001d3c:	2120      	movs	r1, #32
 8001d3e:	6158      	str	r0, [r3, #20]
 8001d40:	6322      	str	r2, [r4, #48]	; 0x30
 8001d42:	f884 103d 	strb.w	r1, [r4, #61]	; 0x3d
 8001d46:	f884 203e 	strb.w	r2, [r4, #62]	; 0x3e
 8001d4a:	6c23      	ldr	r3, [r4, #64]	; 0x40
 8001d4c:	f884 203c 	strb.w	r2, [r4, #60]	; 0x3c
 8001d50:	f043 0304 	orr.w	r3, r3, #4
 8001d54:	6423      	str	r3, [r4, #64]	; 0x40
 8001d56:	6c23      	ldr	r3, [r4, #64]	; 0x40
 8001d58:	2b04      	cmp	r3, #4
 8001d5a:	d07e      	beq.n	8001e5a <HAL_I2C_Master_Transmit+0x262>
 8001d5c:	2001      	movs	r0, #1
 8001d5e:	b002      	add	sp, #8
 8001d60:	e8bd 87f0 	ldmia.w	sp!, {r4, r5, r6, r7, r8, r9, sl, pc}
 8001d64:	681a      	ldr	r2, [r3, #0]
 8001d66:	f442 7280 	orr.w	r2, r2, #256	; 0x100
 8001d6a:	601a      	str	r2, [r3, #0]
 8001d6c:	e78f      	b.n	8001c8e <HAL_I2C_Master_Transmit+0x96>
 8001d6e:	695a      	ldr	r2, [r3, #20]
 8001d70:	0617      	lsls	r7, r2, #24
 8001d72:	d4b8      	bmi.n	8001ce6 <HAL_I2C_Master_Transmit+0xee>
 8001d74:	695a      	ldr	r2, [r3, #20]
 8001d76:	0557      	lsls	r7, r2, #21
 8001d78:	d4dd      	bmi.n	8001d36 <HAL_I2C_Master_Transmit+0x13e>
 8001d7a:	f7ff fab1 	bl	80012e0 <HAL_GetTick>
 8001d7e:	1b80      	subs	r0, r0, r6
 8001d80:	4285      	cmp	r5, r0
 8001d82:	d371      	bcc.n	8001e68 <HAL_I2C_Master_Transmit+0x270>
 8001d84:	2d00      	cmp	r5, #0
 8001d86:	d06f      	beq.n	8001e68 <HAL_I2C_Master_Transmit+0x270>
 8001d88:	6823      	ldr	r3, [r4, #0]
 8001d8a:	e7a3      	b.n	8001cd4 <HAL_I2C_Master_Transmit+0xdc>
 8001d8c:	695a      	ldr	r2, [r3, #20]
 8001d8e:	0752      	lsls	r2, r2, #29
 8001d90:	d49c      	bmi.n	8001ccc <HAL_I2C_Master_Transmit+0xd4>
 8001d92:	695a      	ldr	r2, [r3, #20]
 8001d94:	0552      	lsls	r2, r2, #21
 8001d96:	d4ce      	bmi.n	8001d36 <HAL_I2C_Master_Transmit+0x13e>
 8001d98:	f7ff faa2 	bl	80012e0 <HAL_GetTick>
 8001d9c:	1b80      	subs	r0, r0, r6
 8001d9e:	4285      	cmp	r5, r0
 8001da0:	d362      	bcc.n	8001e68 <HAL_I2C_Master_Transmit+0x270>
 8001da2:	2d00      	cmp	r5, #0
 8001da4:	d060      	beq.n	8001e68 <HAL_I2C_Master_Transmit+0x270>
 8001da6:	6823      	ldr	r3, [r4, #0]
 8001da8:	e7bd      	b.n	8001d26 <HAL_I2C_Master_Transmit+0x12e>
 8001daa:	695a      	ldr	r2, [r3, #20]
 8001dac:	07d2      	lsls	r2, r2, #31
 8001dae:	f53f af74 	bmi.w	8001c9a <HAL_I2C_Master_Transmit+0xa2>
 8001db2:	f7ff fa95 	bl	80012e0 <HAL_GetTick>
 8001db6:	1b80      	subs	r0, r0, r6
 8001db8:	4285      	cmp	r5, r0
 8001dba:	6823      	ldr	r3, [r4, #0]
 8001dbc:	d302      	bcc.n	8001dc4 <HAL_I2C_Master_Transmit+0x1cc>
 8001dbe:	2d00      	cmp	r5, #0
 8001dc0:	f47f af65 	bne.w	8001c8e <HAL_I2C_Master_Transmit+0x96>
 8001dc4:	2100      	movs	r1, #0
 8001dc6:	2220      	movs	r2, #32
 8001dc8:	6321      	str	r1, [r4, #48]	; 0x30
 8001dca:	f884 203d 	strb.w	r2, [r4, #61]	; 0x3d
 8001dce:	f884 103e 	strb.w	r1, [r4, #62]	; 0x3e
 8001dd2:	6c22      	ldr	r2, [r4, #64]	; 0x40
 8001dd4:	f884 103c 	strb.w	r1, [r4, #60]	; 0x3c
 8001dd8:	f042 0220 	orr.w	r2, r2, #32
 8001ddc:	6422      	str	r2, [r4, #64]	; 0x40
 8001dde:	681b      	ldr	r3, [r3, #0]
 8001de0:	05dd      	lsls	r5, r3, #23
 8001de2:	d5bb      	bpl.n	8001d5c <HAL_I2C_Master_Transmit+0x164>
 8001de4:	f44f 7300 	mov.w	r3, #512	; 0x200
 8001de8:	6423      	str	r3, [r4, #64]	; 0x40
 8001dea:	2001      	movs	r0, #1
 8001dec:	e713      	b.n	8001c16 <HAL_I2C_Master_Transmit+0x1e>
 8001dee:	2320      	movs	r3, #32
 8001df0:	f8c4 a030 	str.w	sl, [r4, #48]	; 0x30
 8001df4:	f884 303d 	strb.w	r3, [r4, #61]	; 0x3d
 8001df8:	f884 a03e 	strb.w	sl, [r4, #62]	; 0x3e
 8001dfc:	6c23      	ldr	r3, [r4, #64]	; 0x40
 8001dfe:	f884 a03c 	strb.w	sl, [r4, #60]	; 0x3c
 8001e02:	f043 0320 	orr.w	r3, r3, #32
 8001e06:	6423      	str	r3, [r4, #64]	; 0x40
 8001e08:	e704      	b.n	8001c14 <HAL_I2C_Master_Transmit+0x1c>
 8001e0a:	6819      	ldr	r1, [r3, #0]
 8001e0c:	2200      	movs	r2, #0
 8001e0e:	2020      	movs	r0, #32
 8001e10:	f46f 6580 	mvn.w	r5, #1024	; 0x400
 8001e14:	f441 7100 	orr.w	r1, r1, #512	; 0x200
 8001e18:	6019      	str	r1, [r3, #0]
 8001e1a:	615d      	str	r5, [r3, #20]
 8001e1c:	6322      	str	r2, [r4, #48]	; 0x30
 8001e1e:	f884 003d 	strb.w	r0, [r4, #61]	; 0x3d
 8001e22:	f884 203e 	strb.w	r2, [r4, #62]	; 0x3e
 8001e26:	6c23      	ldr	r3, [r4, #64]	; 0x40
 8001e28:	f884 203c 	strb.w	r2, [r4, #60]	; 0x3c
 8001e2c:	f043 0304 	orr.w	r3, r3, #4
 8001e30:	6423      	str	r3, [r4, #64]	; 0x40
 8001e32:	2001      	movs	r0, #1
 8001e34:	e6ef      	b.n	8001c16 <HAL_I2C_Master_Transmit+0x1e>
 8001e36:	11fa      	asrs	r2, r7, #7
 8001e38:	f002 0206 	and.w	r2, r2, #6
 8001e3c:	f042 02f0 	orr.w	r2, r2, #240	; 0xf0
 8001e40:	611a      	str	r2, [r3, #16]
 8001e42:	1c69      	adds	r1, r5, #1
 8001e44:	d003      	beq.n	8001e4e <HAL_I2C_Master_Transmit+0x256>
 8001e46:	e039      	b.n	8001ebc <HAL_I2C_Master_Transmit+0x2c4>
 8001e48:	695a      	ldr	r2, [r3, #20]
 8001e4a:	0550      	lsls	r0, r2, #21
 8001e4c:	d4dd      	bmi.n	8001e0a <HAL_I2C_Master_Transmit+0x212>
 8001e4e:	695a      	ldr	r2, [r3, #20]
 8001e50:	0712      	lsls	r2, r2, #28
 8001e52:	d5f9      	bpl.n	8001e48 <HAL_I2C_Master_Transmit+0x250>
 8001e54:	b2ff      	uxtb	r7, r7
 8001e56:	611f      	str	r7, [r3, #16]
 8001e58:	e727      	b.n	8001caa <HAL_I2C_Master_Transmit+0xb2>
 8001e5a:	6822      	ldr	r2, [r4, #0]
 8001e5c:	6813      	ldr	r3, [r2, #0]
 8001e5e:	f443 7300 	orr.w	r3, r3, #512	; 0x200
 8001e62:	6013      	str	r3, [r2, #0]
 8001e64:	2001      	movs	r0, #1
 8001e66:	e6d6      	b.n	8001c16 <HAL_I2C_Master_Transmit+0x1e>
 8001e68:	2200      	movs	r2, #0
 8001e6a:	2320      	movs	r3, #32
 8001e6c:	6322      	str	r2, [r4, #48]	; 0x30
 8001e6e:	f884 303d 	strb.w	r3, [r4, #61]	; 0x3d
 8001e72:	f884 203e 	strb.w	r2, [r4, #62]	; 0x3e
 8001e76:	6c23      	ldr	r3, [r4, #64]	; 0x40
 8001e78:	f884 203c 	strb.w	r2, [r4, #60]	; 0x3c
 8001e7c:	f043 0320 	orr.w	r3, r3, #32
 8001e80:	6423      	str	r3, [r4, #64]	; 0x40
 8001e82:	e768      	b.n	8001d56 <HAL_I2C_Master_Transmit+0x15e>
 8001e84:	695a      	ldr	r2, [r3, #20]
 8001e86:	0792      	lsls	r2, r2, #30
 8001e88:	f53f af19 	bmi.w	8001cbe <HAL_I2C_Master_Transmit+0xc6>
 8001e8c:	695a      	ldr	r2, [r3, #20]
 8001e8e:	0552      	lsls	r2, r2, #21
 8001e90:	d4bb      	bmi.n	8001e0a <HAL_I2C_Master_Transmit+0x212>
 8001e92:	f7ff fa25 	bl	80012e0 <HAL_GetTick>
 8001e96:	1b80      	subs	r0, r0, r6
 8001e98:	4285      	cmp	r5, r0
 8001e9a:	d31f      	bcc.n	8001edc <HAL_I2C_Master_Transmit+0x2e4>
 8001e9c:	b1f5      	cbz	r5, 8001edc <HAL_I2C_Master_Transmit+0x2e4>
 8001e9e:	6823      	ldr	r3, [r4, #0]
 8001ea0:	e703      	b.n	8001caa <HAL_I2C_Master_Transmit+0xb2>
 8001ea2:	6819      	ldr	r1, [r3, #0]
 8001ea4:	2520      	movs	r5, #32
 8001ea6:	f441 7100 	orr.w	r1, r1, #512	; 0x200
 8001eaa:	6019      	str	r1, [r3, #0]
 8001eac:	4610      	mov	r0, r2
 8001eae:	f884 503d 	strb.w	r5, [r4, #61]	; 0x3d
 8001eb2:	f884 203c 	strb.w	r2, [r4, #60]	; 0x3c
 8001eb6:	f884 203e 	strb.w	r2, [r4, #62]	; 0x3e
 8001eba:	e6ac      	b.n	8001c16 <HAL_I2C_Master_Transmit+0x1e>
 8001ebc:	695a      	ldr	r2, [r3, #20]
 8001ebe:	0711      	lsls	r1, r2, #28
 8001ec0:	d4c8      	bmi.n	8001e54 <HAL_I2C_Master_Transmit+0x25c>
 8001ec2:	695a      	ldr	r2, [r3, #20]
 8001ec4:	0550      	lsls	r0, r2, #21
 8001ec6:	d4a0      	bmi.n	8001e0a <HAL_I2C_Master_Transmit+0x212>
 8001ec8:	f7ff fa0a 	bl	80012e0 <HAL_GetTick>
 8001ecc:	1b80      	subs	r0, r0, r6
 8001ece:	4285      	cmp	r5, r0
 8001ed0:	d304      	bcc.n	8001edc <HAL_I2C_Master_Transmit+0x2e4>
 8001ed2:	b11d      	cbz	r5, 8001edc <HAL_I2C_Master_Transmit+0x2e4>
 8001ed4:	6823      	ldr	r3, [r4, #0]
 8001ed6:	e7b4      	b.n	8001e42 <HAL_I2C_Master_Transmit+0x24a>
 8001ed8:	ffff0000 	.word	0xffff0000
 8001edc:	2200      	movs	r2, #0
 8001ede:	2320      	movs	r3, #32
 8001ee0:	6322      	str	r2, [r4, #48]	; 0x30
 8001ee2:	f884 303d 	strb.w	r3, [r4, #61]	; 0x3d
 8001ee6:	f884 203e 	strb.w	r2, [r4, #62]	; 0x3e
 8001eea:	6c23      	ldr	r3, [r4, #64]	; 0x40
 8001eec:	f884 203c 	strb.w	r2, [r4, #60]	; 0x3c
 8001ef0:	f043 0320 	orr.w	r3, r3, #32
 8001ef4:	6423      	str	r3, [r4, #64]	; 0x40
 8001ef6:	e731      	b.n	8001d5c <HAL_I2C_Master_Transmit+0x164>

08001ef8 <HAL_I2C_IsDeviceReady>:
 8001ef8:	e92d 4ff0 	stmdb	sp!, {r4, r5, r6, r7, r8, r9, sl, fp, lr}
 8001efc:	4605      	mov	r5, r0
 8001efe:	b083      	sub	sp, #12
 8001f00:	461f      	mov	r7, r3
 8001f02:	468a      	mov	sl, r1
 8001f04:	4693      	mov	fp, r2
 8001f06:	f7ff f9eb 	bl	80012e0 <HAL_GetTick>
 8001f0a:	f895 303d 	ldrb.w	r3, [r5, #61]	; 0x3d
 8001f0e:	2b20      	cmp	r3, #32
 8001f10:	d003      	beq.n	8001f1a <HAL_I2C_IsDeviceReady+0x22>
 8001f12:	2002      	movs	r0, #2
 8001f14:	b003      	add	sp, #12
 8001f16:	e8bd 8ff0 	ldmia.w	sp!, {r4, r5, r6, r7, r8, r9, sl, fp, pc}
 8001f1a:	4606      	mov	r6, r0
 8001f1c:	e005      	b.n	8001f2a <HAL_I2C_IsDeviceReady+0x32>
 8001f1e:	f7ff f9df 	bl	80012e0 <HAL_GetTick>
 8001f22:	1b80      	subs	r0, r0, r6
 8001f24:	2819      	cmp	r0, #25
 8001f26:	f200 80c2 	bhi.w	80020ae <HAL_I2C_IsDeviceReady+0x1b6>
 8001f2a:	682b      	ldr	r3, [r5, #0]
 8001f2c:	699a      	ldr	r2, [r3, #24]
 8001f2e:	43d2      	mvns	r2, r2
 8001f30:	f012 0402 	ands.w	r4, r2, #2
 8001f34:	d0f3      	beq.n	8001f1e <HAL_I2C_IsDeviceReady+0x26>
 8001f36:	f895 203c 	ldrb.w	r2, [r5, #60]	; 0x3c
 8001f3a:	2a01      	cmp	r2, #1
 8001f3c:	d0e9      	beq.n	8001f12 <HAL_I2C_IsDeviceReady+0x1a>
 8001f3e:	681a      	ldr	r2, [r3, #0]
 8001f40:	2101      	movs	r1, #1
 8001f42:	07d2      	lsls	r2, r2, #31
 8001f44:	f885 103c 	strb.w	r1, [r5, #60]	; 0x3c
 8001f48:	f140 80ad 	bpl.w	80020a6 <HAL_I2C_IsDeviceReady+0x1ae>
 8001f4c:	681a      	ldr	r2, [r3, #0]
 8001f4e:	496d      	ldr	r1, [pc, #436]	; (8002104 <HAL_I2C_IsDeviceReady+0x20c>)
 8001f50:	f422 6200 	bic.w	r2, r2, #2048	; 0x800
 8001f54:	601a      	str	r2, [r3, #0]
 8001f56:	2024      	movs	r0, #36	; 0x24
 8001f58:	2200      	movs	r2, #0
 8001f5a:	f885 003d 	strb.w	r0, [r5, #61]	; 0x3d
 8001f5e:	f00a 0afe 	and.w	sl, sl, #254	; 0xfe
 8001f62:	642a      	str	r2, [r5, #64]	; 0x40
 8001f64:	f04f 0901 	mov.w	r9, #1
 8001f68:	62e9      	str	r1, [r5, #44]	; 0x2c
 8001f6a:	f04f 08a0 	mov.w	r8, #160	; 0xa0
 8001f6e:	681a      	ldr	r2, [r3, #0]
 8001f70:	f442 7280 	orr.w	r2, r2, #256	; 0x100
 8001f74:	601a      	str	r2, [r3, #0]
 8001f76:	1c78      	adds	r0, r7, #1
 8001f78:	d165      	bne.n	8002046 <HAL_I2C_IsDeviceReady+0x14e>
 8001f7a:	695a      	ldr	r2, [r3, #20]
 8001f7c:	07d1      	lsls	r1, r2, #31
 8001f7e:	d5fc      	bpl.n	8001f7a <HAL_I2C_IsDeviceReady+0x82>
 8001f80:	f8c3 a010 	str.w	sl, [r3, #16]
 8001f84:	f7ff f9ac 	bl	80012e0 <HAL_GetTick>
 8001f88:	682b      	ldr	r3, [r5, #0]
 8001f8a:	4606      	mov	r6, r0
 8001f8c:	695a      	ldr	r2, [r3, #20]
 8001f8e:	6959      	ldr	r1, [r3, #20]
 8001f90:	f895 003d 	ldrb.w	r0, [r5, #61]	; 0x3d
 8001f94:	28a0      	cmp	r0, #160	; 0xa0
 8001f96:	f002 0202 	and.w	r2, r2, #2
 8001f9a:	f401 6180 	and.w	r1, r1, #1024	; 0x400
 8001f9e:	d018      	beq.n	8001fd2 <HAL_I2C_IsDeviceReady+0xda>
 8001fa0:	b9ba      	cbnz	r2, 8001fd2 <HAL_I2C_IsDeviceReady+0xda>
 8001fa2:	b9b1      	cbnz	r1, 8001fd2 <HAL_I2C_IsDeviceReady+0xda>
 8001fa4:	2f00      	cmp	r7, #0
 8001fa6:	d03e      	beq.n	8002026 <HAL_I2C_IsDeviceReady+0x12e>
 8001fa8:	e001      	b.n	8001fae <HAL_I2C_IsDeviceReady+0xb6>
 8001faa:	b992      	cbnz	r2, 8001fd2 <HAL_I2C_IsDeviceReady+0xda>
 8001fac:	b989      	cbnz	r1, 8001fd2 <HAL_I2C_IsDeviceReady+0xda>
 8001fae:	f7ff f997 	bl	80012e0 <HAL_GetTick>
 8001fb2:	1b80      	subs	r0, r0, r6
 8001fb4:	42b8      	cmp	r0, r7
 8001fb6:	682b      	ldr	r3, [r5, #0]
 8001fb8:	bf88      	it	hi
 8001fba:	f885 803d 	strbhi.w	r8, [r5, #61]	; 0x3d
 8001fbe:	695a      	ldr	r2, [r3, #20]
 8001fc0:	6959      	ldr	r1, [r3, #20]
 8001fc2:	f895 003d 	ldrb.w	r0, [r5, #61]	; 0x3d
 8001fc6:	28a0      	cmp	r0, #160	; 0xa0
 8001fc8:	f002 0202 	and.w	r2, r2, #2
 8001fcc:	f401 6180 	and.w	r1, r1, #1024	; 0x400
 8001fd0:	d1eb      	bne.n	8001faa <HAL_I2C_IsDeviceReady+0xb2>
 8001fd2:	2220      	movs	r2, #32
 8001fd4:	f885 203d 	strb.w	r2, [r5, #61]	; 0x3d
 8001fd8:	695a      	ldr	r2, [r3, #20]
 8001fda:	f012 0f02 	tst.w	r2, #2
 8001fde:	681a      	ldr	r2, [r3, #0]
 8001fe0:	d172      	bne.n	80020c8 <HAL_I2C_IsDeviceReady+0x1d0>
 8001fe2:	f442 7200 	orr.w	r2, r2, #512	; 0x200
 8001fe6:	f46f 6180 	mvn.w	r1, #1024	; 0x400
 8001fea:	601a      	str	r2, [r3, #0]
 8001fec:	6159      	str	r1, [r3, #20]
 8001fee:	e005      	b.n	8001ffc <HAL_I2C_IsDeviceReady+0x104>
 8001ff0:	f7ff f976 	bl	80012e0 <HAL_GetTick>
 8001ff4:	1b80      	subs	r0, r0, r6
 8001ff6:	2819      	cmp	r0, #25
 8001ff8:	d845      	bhi.n	8002086 <HAL_I2C_IsDeviceReady+0x18e>
 8001ffa:	682b      	ldr	r3, [r5, #0]
 8001ffc:	699c      	ldr	r4, [r3, #24]
 8001ffe:	43e4      	mvns	r4, r4
 8002000:	f014 0402 	ands.w	r4, r4, #2
 8002004:	d0f4      	beq.n	8001ff0 <HAL_I2C_IsDeviceReady+0xf8>
 8002006:	f109 0901 	add.w	r9, r9, #1
 800200a:	45d9      	cmp	r9, fp
 800200c:	d3af      	bcc.n	8001f6e <HAL_I2C_IsDeviceReady+0x76>
 800200e:	2220      	movs	r2, #32
 8002010:	2300      	movs	r3, #0
 8002012:	f885 203d 	strb.w	r2, [r5, #61]	; 0x3d
 8002016:	f885 303c 	strb.w	r3, [r5, #60]	; 0x3c
 800201a:	2001      	movs	r0, #1
 800201c:	e77a      	b.n	8001f14 <HAL_I2C_IsDeviceReady+0x1c>
 800201e:	2a00      	cmp	r2, #0
 8002020:	d1d7      	bne.n	8001fd2 <HAL_I2C_IsDeviceReady+0xda>
 8002022:	2900      	cmp	r1, #0
 8002024:	d1d5      	bne.n	8001fd2 <HAL_I2C_IsDeviceReady+0xda>
 8002026:	f7ff f95b 	bl	80012e0 <HAL_GetTick>
 800202a:	682b      	ldr	r3, [r5, #0]
 800202c:	f885 803d 	strb.w	r8, [r5, #61]	; 0x3d
 8002030:	695a      	ldr	r2, [r3, #20]
 8002032:	6959      	ldr	r1, [r3, #20]
 8002034:	f895 003d 	ldrb.w	r0, [r5, #61]	; 0x3d
 8002038:	28a0      	cmp	r0, #160	; 0xa0
 800203a:	f002 0202 	and.w	r2, r2, #2
 800203e:	f401 6180 	and.w	r1, r1, #1024	; 0x400
 8002042:	d1ec      	bne.n	800201e <HAL_I2C_IsDeviceReady+0x126>
 8002044:	e7c5      	b.n	8001fd2 <HAL_I2C_IsDeviceReady+0xda>
 8002046:	695a      	ldr	r2, [r3, #20]
 8002048:	07d2      	lsls	r2, r2, #31
 800204a:	d499      	bmi.n	8001f80 <HAL_I2C_IsDeviceReady+0x88>
 800204c:	f7ff f948 	bl	80012e0 <HAL_GetTick>
 8002050:	1b80      	subs	r0, r0, r6
 8002052:	4287      	cmp	r7, r0
 8002054:	682b      	ldr	r3, [r5, #0]
 8002056:	d301      	bcc.n	800205c <HAL_I2C_IsDeviceReady+0x164>
 8002058:	2f00      	cmp	r7, #0
 800205a:	d18c      	bne.n	8001f76 <HAL_I2C_IsDeviceReady+0x7e>
 800205c:	2100      	movs	r1, #0
 800205e:	2220      	movs	r2, #32
 8002060:	6329      	str	r1, [r5, #48]	; 0x30
 8002062:	f885 203d 	strb.w	r2, [r5, #61]	; 0x3d
 8002066:	f885 103e 	strb.w	r1, [r5, #62]	; 0x3e
 800206a:	6c2a      	ldr	r2, [r5, #64]	; 0x40
 800206c:	f885 103c 	strb.w	r1, [r5, #60]	; 0x3c
 8002070:	f042 0220 	orr.w	r2, r2, #32
 8002074:	642a      	str	r2, [r5, #64]	; 0x40
 8002076:	681b      	ldr	r3, [r3, #0]
 8002078:	05dc      	lsls	r4, r3, #23
 800207a:	d502      	bpl.n	8002082 <HAL_I2C_IsDeviceReady+0x18a>
 800207c:	f44f 7300 	mov.w	r3, #512	; 0x200
 8002080:	642b      	str	r3, [r5, #64]	; 0x40
 8002082:	2003      	movs	r0, #3
 8002084:	e746      	b.n	8001f14 <HAL_I2C_IsDeviceReady+0x1c>
 8002086:	2320      	movs	r3, #32
 8002088:	632c      	str	r4, [r5, #48]	; 0x30
 800208a:	f885 303d 	strb.w	r3, [r5, #61]	; 0x3d
 800208e:	f885 403e 	strb.w	r4, [r5, #62]	; 0x3e
 8002092:	6c2b      	ldr	r3, [r5, #64]	; 0x40
 8002094:	f885 403c 	strb.w	r4, [r5, #60]	; 0x3c
 8002098:	f043 0320 	orr.w	r3, r3, #32
 800209c:	2001      	movs	r0, #1
 800209e:	642b      	str	r3, [r5, #64]	; 0x40
 80020a0:	b003      	add	sp, #12
 80020a2:	e8bd 8ff0 	ldmia.w	sp!, {r4, r5, r6, r7, r8, r9, sl, fp, pc}
 80020a6:	681a      	ldr	r2, [r3, #0]
 80020a8:	430a      	orrs	r2, r1
 80020aa:	601a      	str	r2, [r3, #0]
 80020ac:	e74e      	b.n	8001f4c <HAL_I2C_IsDeviceReady+0x54>
 80020ae:	2320      	movs	r3, #32
 80020b0:	632c      	str	r4, [r5, #48]	; 0x30
 80020b2:	f885 303d 	strb.w	r3, [r5, #61]	; 0x3d
 80020b6:	f885 403e 	strb.w	r4, [r5, #62]	; 0x3e
 80020ba:	6c2b      	ldr	r3, [r5, #64]	; 0x40
 80020bc:	f885 403c 	strb.w	r4, [r5, #60]	; 0x3c
 80020c0:	f043 0320 	orr.w	r3, r3, #32
 80020c4:	642b      	str	r3, [r5, #64]	; 0x40
 80020c6:	e724      	b.n	8001f12 <HAL_I2C_IsDeviceReady+0x1a>
 80020c8:	f442 7200 	orr.w	r2, r2, #512	; 0x200
 80020cc:	2100      	movs	r1, #0
 80020ce:	601a      	str	r2, [r3, #0]
 80020d0:	9101      	str	r1, [sp, #4]
 80020d2:	695a      	ldr	r2, [r3, #20]
 80020d4:	9201      	str	r2, [sp, #4]
 80020d6:	699a      	ldr	r2, [r3, #24]
 80020d8:	9201      	str	r2, [sp, #4]
 80020da:	9a01      	ldr	r2, [sp, #4]
 80020dc:	e005      	b.n	80020ea <HAL_I2C_IsDeviceReady+0x1f2>
 80020de:	f7ff f8ff 	bl	80012e0 <HAL_GetTick>
 80020e2:	1b80      	subs	r0, r0, r6
 80020e4:	2819      	cmp	r0, #25
 80020e6:	d8ce      	bhi.n	8002086 <HAL_I2C_IsDeviceReady+0x18e>
 80020e8:	682b      	ldr	r3, [r5, #0]
 80020ea:	699b      	ldr	r3, [r3, #24]
 80020ec:	43db      	mvns	r3, r3
 80020ee:	f013 0402 	ands.w	r4, r3, #2
 80020f2:	d0f4      	beq.n	80020de <HAL_I2C_IsDeviceReady+0x1e6>
 80020f4:	2320      	movs	r3, #32
 80020f6:	2000      	movs	r0, #0
 80020f8:	f885 303d 	strb.w	r3, [r5, #61]	; 0x3d
 80020fc:	f885 003c 	strb.w	r0, [r5, #60]	; 0x3c
 8002100:	e708      	b.n	8001f14 <HAL_I2C_IsDeviceReady+0x1c>
 8002102:	bf00      	nop
 8002104:	ffff0000 	.word	0xffff0000

08002108 <HAL_RCC_OscConfig>:
 8002108:	2800      	cmp	r0, #0
 800210a:	f000 8132 	beq.w	8002372 <HAL_RCC_OscConfig+0x26a>
 800210e:	e92d 41f0 	stmdb	sp!, {r4, r5, r6, r7, r8, lr}
 8002112:	6803      	ldr	r3, [r0, #0]
 8002114:	07dd      	lsls	r5, r3, #31
 8002116:	b082      	sub	sp, #8
 8002118:	4604      	mov	r4, r0
 800211a:	d52f      	bpl.n	800217c <HAL_RCC_OscConfig+0x74>
 800211c:	49ac      	ldr	r1, [pc, #688]	; (80023d0 <HAL_RCC_OscConfig+0x2c8>)
 800211e:	688a      	ldr	r2, [r1, #8]
 8002120:	f002 020c 	and.w	r2, r2, #12
 8002124:	2a04      	cmp	r2, #4
 8002126:	f000 80ea 	beq.w	80022fe <HAL_RCC_OscConfig+0x1f6>
 800212a:	688a      	ldr	r2, [r1, #8]
 800212c:	f002 020c 	and.w	r2, r2, #12
 8002130:	2a08      	cmp	r2, #8
 8002132:	f000 80e0 	beq.w	80022f6 <HAL_RCC_OscConfig+0x1ee>
 8002136:	6863      	ldr	r3, [r4, #4]
 8002138:	f5b3 3f80 	cmp.w	r3, #65536	; 0x10000
 800213c:	f000 80e9 	beq.w	8002312 <HAL_RCC_OscConfig+0x20a>
 8002140:	f5b3 2fa0 	cmp.w	r3, #327680	; 0x50000
 8002144:	f000 8178 	beq.w	8002438 <HAL_RCC_OscConfig+0x330>
 8002148:	4da1      	ldr	r5, [pc, #644]	; (80023d0 <HAL_RCC_OscConfig+0x2c8>)
 800214a:	682a      	ldr	r2, [r5, #0]
 800214c:	f422 3280 	bic.w	r2, r2, #65536	; 0x10000
 8002150:	602a      	str	r2, [r5, #0]
 8002152:	682a      	ldr	r2, [r5, #0]
 8002154:	f422 2280 	bic.w	r2, r2, #262144	; 0x40000
 8002158:	602a      	str	r2, [r5, #0]
 800215a:	2b00      	cmp	r3, #0
 800215c:	f040 80de 	bne.w	800231c <HAL_RCC_OscConfig+0x214>
 8002160:	f7ff f8be 	bl	80012e0 <HAL_GetTick>
 8002164:	4606      	mov	r6, r0
 8002166:	e005      	b.n	8002174 <HAL_RCC_OscConfig+0x6c>
 8002168:	f7ff f8ba 	bl	80012e0 <HAL_GetTick>
 800216c:	1b80      	subs	r0, r0, r6
 800216e:	2864      	cmp	r0, #100	; 0x64
 8002170:	f200 80f2 	bhi.w	8002358 <HAL_RCC_OscConfig+0x250>
 8002174:	682b      	ldr	r3, [r5, #0]
 8002176:	039b      	lsls	r3, r3, #14
 8002178:	d4f6      	bmi.n	8002168 <HAL_RCC_OscConfig+0x60>
 800217a:	6823      	ldr	r3, [r4, #0]
 800217c:	079f      	lsls	r7, r3, #30
 800217e:	d475      	bmi.n	800226c <HAL_RCC_OscConfig+0x164>
 8002180:	071a      	lsls	r2, r3, #28
 8002182:	d515      	bpl.n	80021b0 <HAL_RCC_OscConfig+0xa8>
 8002184:	6963      	ldr	r3, [r4, #20]
 8002186:	2b00      	cmp	r3, #0
 8002188:	f000 80a5 	beq.w	80022d6 <HAL_RCC_OscConfig+0x1ce>
 800218c:	4b91      	ldr	r3, [pc, #580]	; (80023d4 <HAL_RCC_OscConfig+0x2cc>)
 800218e:	4d90      	ldr	r5, [pc, #576]	; (80023d0 <HAL_RCC_OscConfig+0x2c8>)
 8002190:	2201      	movs	r2, #1
 8002192:	601a      	str	r2, [r3, #0]
 8002194:	f7ff f8a4 	bl	80012e0 <HAL_GetTick>
 8002198:	4606      	mov	r6, r0
 800219a:	e005      	b.n	80021a8 <HAL_RCC_OscConfig+0xa0>
 800219c:	f7ff f8a0 	bl	80012e0 <HAL_GetTick>
 80021a0:	1b80      	subs	r0, r0, r6
 80021a2:	2802      	cmp	r0, #2
 80021a4:	f200 80d8 	bhi.w	8002358 <HAL_RCC_OscConfig+0x250>
 80021a8:	6f6b      	ldr	r3, [r5, #116]	; 0x74
 80021aa:	079b      	lsls	r3, r3, #30
 80021ac:	d5f6      	bpl.n	800219c <HAL_RCC_OscConfig+0x94>
 80021ae:	6823      	ldr	r3, [r4, #0]
 80021b0:	0758      	lsls	r0, r3, #29
 80021b2:	d53b      	bpl.n	800222c <HAL_RCC_OscConfig+0x124>
 80021b4:	4a86      	ldr	r2, [pc, #536]	; (80023d0 <HAL_RCC_OscConfig+0x2c8>)
 80021b6:	6c13      	ldr	r3, [r2, #64]	; 0x40
 80021b8:	f013 5380 	ands.w	r3, r3, #268435456	; 0x10000000
 80021bc:	f040 80db 	bne.w	8002376 <HAL_RCC_OscConfig+0x26e>
 80021c0:	9301      	str	r3, [sp, #4]
 80021c2:	6c13      	ldr	r3, [r2, #64]	; 0x40
 80021c4:	f043 5380 	orr.w	r3, r3, #268435456	; 0x10000000
 80021c8:	6413      	str	r3, [r2, #64]	; 0x40
 80021ca:	6c13      	ldr	r3, [r2, #64]	; 0x40
 80021cc:	f003 5380 	and.w	r3, r3, #268435456	; 0x10000000
 80021d0:	9301      	str	r3, [sp, #4]
 80021d2:	9b01      	ldr	r3, [sp, #4]
 80021d4:	2601      	movs	r6, #1
 80021d6:	4d80      	ldr	r5, [pc, #512]	; (80023d8 <HAL_RCC_OscConfig+0x2d0>)
 80021d8:	682a      	ldr	r2, [r5, #0]
 80021da:	05d1      	lsls	r1, r2, #23
 80021dc:	f140 80ac 	bpl.w	8002338 <HAL_RCC_OscConfig+0x230>
 80021e0:	68a3      	ldr	r3, [r4, #8]
 80021e2:	2b01      	cmp	r3, #1
 80021e4:	f000 80c9 	beq.w	800237a <HAL_RCC_OscConfig+0x272>
 80021e8:	2b05      	cmp	r3, #5
 80021ea:	f000 812f 	beq.w	800244c <HAL_RCC_OscConfig+0x344>
 80021ee:	4d78      	ldr	r5, [pc, #480]	; (80023d0 <HAL_RCC_OscConfig+0x2c8>)
 80021f0:	6f2a      	ldr	r2, [r5, #112]	; 0x70
 80021f2:	f022 0201 	bic.w	r2, r2, #1
 80021f6:	672a      	str	r2, [r5, #112]	; 0x70
 80021f8:	6f2a      	ldr	r2, [r5, #112]	; 0x70
 80021fa:	f022 0204 	bic.w	r2, r2, #4
 80021fe:	672a      	str	r2, [r5, #112]	; 0x70
 8002200:	2b00      	cmp	r3, #0
 8002202:	f040 80bf 	bne.w	8002384 <HAL_RCC_OscConfig+0x27c>
 8002206:	f7ff f86b 	bl	80012e0 <HAL_GetTick>
 800220a:	f241 3788 	movw	r7, #5000	; 0x1388
 800220e:	4680      	mov	r8, r0
 8002210:	e006      	b.n	8002220 <HAL_RCC_OscConfig+0x118>
 8002212:	f7ff f865 	bl	80012e0 <HAL_GetTick>
 8002216:	eba0 0008 	sub.w	r0, r0, r8
 800221a:	42b8      	cmp	r0, r7
 800221c:	f200 809c 	bhi.w	8002358 <HAL_RCC_OscConfig+0x250>
 8002220:	6f2b      	ldr	r3, [r5, #112]	; 0x70
 8002222:	0798      	lsls	r0, r3, #30
 8002224:	d4f5      	bmi.n	8002212 <HAL_RCC_OscConfig+0x10a>
 8002226:	2e00      	cmp	r6, #0
 8002228:	f040 80dc 	bne.w	80023e4 <HAL_RCC_OscConfig+0x2dc>
 800222c:	69a0      	ldr	r0, [r4, #24]
 800222e:	b1c8      	cbz	r0, 8002264 <HAL_RCC_OscConfig+0x15c>
 8002230:	4d67      	ldr	r5, [pc, #412]	; (80023d0 <HAL_RCC_OscConfig+0x2c8>)
 8002232:	68aa      	ldr	r2, [r5, #8]
 8002234:	f002 020c 	and.w	r2, r2, #12
 8002238:	2a08      	cmp	r2, #8
 800223a:	f000 80d9 	beq.w	80023f0 <HAL_RCC_OscConfig+0x2e8>
 800223e:	4a67      	ldr	r2, [pc, #412]	; (80023dc <HAL_RCC_OscConfig+0x2d4>)
 8002240:	2100      	movs	r1, #0
 8002242:	2802      	cmp	r0, #2
 8002244:	6011      	str	r1, [r2, #0]
 8002246:	f000 810b 	beq.w	8002460 <HAL_RCC_OscConfig+0x358>
 800224a:	f7ff f849 	bl	80012e0 <HAL_GetTick>
 800224e:	462c      	mov	r4, r5
 8002250:	4605      	mov	r5, r0
 8002252:	e004      	b.n	800225e <HAL_RCC_OscConfig+0x156>
 8002254:	f7ff f844 	bl	80012e0 <HAL_GetTick>
 8002258:	1b40      	subs	r0, r0, r5
 800225a:	2802      	cmp	r0, #2
 800225c:	d87c      	bhi.n	8002358 <HAL_RCC_OscConfig+0x250>
 800225e:	6823      	ldr	r3, [r4, #0]
 8002260:	019b      	lsls	r3, r3, #6
 8002262:	d4f7      	bmi.n	8002254 <HAL_RCC_OscConfig+0x14c>
 8002264:	2000      	movs	r0, #0
 8002266:	b002      	add	sp, #8
 8002268:	e8bd 81f0 	ldmia.w	sp!, {r4, r5, r6, r7, r8, pc}
 800226c:	4a58      	ldr	r2, [pc, #352]	; (80023d0 <HAL_RCC_OscConfig+0x2c8>)
 800226e:	6891      	ldr	r1, [r2, #8]
 8002270:	f011 0f0c 	tst.w	r1, #12
 8002274:	d024      	beq.n	80022c0 <HAL_RCC_OscConfig+0x1b8>
 8002276:	6891      	ldr	r1, [r2, #8]
 8002278:	f001 010c 	and.w	r1, r1, #12
 800227c:	2908      	cmp	r1, #8
 800227e:	d01c      	beq.n	80022ba <HAL_RCC_OscConfig+0x1b2>
 8002280:	68e3      	ldr	r3, [r4, #12]
 8002282:	2b00      	cmp	r3, #0
 8002284:	f000 8092 	beq.w	80023ac <HAL_RCC_OscConfig+0x2a4>
 8002288:	4b55      	ldr	r3, [pc, #340]	; (80023e0 <HAL_RCC_OscConfig+0x2d8>)
 800228a:	4d51      	ldr	r5, [pc, #324]	; (80023d0 <HAL_RCC_OscConfig+0x2c8>)
 800228c:	2201      	movs	r2, #1
 800228e:	601a      	str	r2, [r3, #0]
 8002290:	f7ff f826 	bl	80012e0 <HAL_GetTick>
 8002294:	4606      	mov	r6, r0
 8002296:	e004      	b.n	80022a2 <HAL_RCC_OscConfig+0x19a>
 8002298:	f7ff f822 	bl	80012e0 <HAL_GetTick>
 800229c:	1b80      	subs	r0, r0, r6
 800229e:	2802      	cmp	r0, #2
 80022a0:	d85a      	bhi.n	8002358 <HAL_RCC_OscConfig+0x250>
 80022a2:	682b      	ldr	r3, [r5, #0]
 80022a4:	0798      	lsls	r0, r3, #30
 80022a6:	d5f7      	bpl.n	8002298 <HAL_RCC_OscConfig+0x190>
 80022a8:	682b      	ldr	r3, [r5, #0]
 80022aa:	6922      	ldr	r2, [r4, #16]
 80022ac:	f023 03f8 	bic.w	r3, r3, #248	; 0xf8
 80022b0:	ea43 03c2 	orr.w	r3, r3, r2, lsl #3
 80022b4:	602b      	str	r3, [r5, #0]
 80022b6:	6823      	ldr	r3, [r4, #0]
 80022b8:	e762      	b.n	8002180 <HAL_RCC_OscConfig+0x78>
 80022ba:	6852      	ldr	r2, [r2, #4]
 80022bc:	0256      	lsls	r6, r2, #9
 80022be:	d4df      	bmi.n	8002280 <HAL_RCC_OscConfig+0x178>
 80022c0:	4a43      	ldr	r2, [pc, #268]	; (80023d0 <HAL_RCC_OscConfig+0x2c8>)
 80022c2:	6812      	ldr	r2, [r2, #0]
 80022c4:	0795      	lsls	r5, r2, #30
 80022c6:	d54b      	bpl.n	8002360 <HAL_RCC_OscConfig+0x258>
 80022c8:	68e2      	ldr	r2, [r4, #12]
 80022ca:	2a01      	cmp	r2, #1
 80022cc:	d048      	beq.n	8002360 <HAL_RCC_OscConfig+0x258>
 80022ce:	2001      	movs	r0, #1
 80022d0:	b002      	add	sp, #8
 80022d2:	e8bd 81f0 	ldmia.w	sp!, {r4, r5, r6, r7, r8, pc}
 80022d6:	4a3f      	ldr	r2, [pc, #252]	; (80023d4 <HAL_RCC_OscConfig+0x2cc>)
 80022d8:	4d3d      	ldr	r5, [pc, #244]	; (80023d0 <HAL_RCC_OscConfig+0x2c8>)
 80022da:	6013      	str	r3, [r2, #0]
 80022dc:	f7ff f800 	bl	80012e0 <HAL_GetTick>
 80022e0:	4606      	mov	r6, r0
 80022e2:	e004      	b.n	80022ee <HAL_RCC_OscConfig+0x1e6>
 80022e4:	f7fe fffc 	bl	80012e0 <HAL_GetTick>
 80022e8:	1b80      	subs	r0, r0, r6
 80022ea:	2802      	cmp	r0, #2
 80022ec:	d834      	bhi.n	8002358 <HAL_RCC_OscConfig+0x250>
 80022ee:	6f6b      	ldr	r3, [r5, #116]	; 0x74
 80022f0:	079f      	lsls	r7, r3, #30
 80022f2:	d4f7      	bmi.n	80022e4 <HAL_RCC_OscConfig+0x1dc>
 80022f4:	e75b      	b.n	80021ae <HAL_RCC_OscConfig+0xa6>
 80022f6:	684a      	ldr	r2, [r1, #4]
 80022f8:	0250      	lsls	r0, r2, #9
 80022fa:	f57f af1c 	bpl.w	8002136 <HAL_RCC_OscConfig+0x2e>
 80022fe:	4a34      	ldr	r2, [pc, #208]	; (80023d0 <HAL_RCC_OscConfig+0x2c8>)
 8002300:	6812      	ldr	r2, [r2, #0]
 8002302:	0391      	lsls	r1, r2, #14
 8002304:	f57f af3a 	bpl.w	800217c <HAL_RCC_OscConfig+0x74>
 8002308:	6862      	ldr	r2, [r4, #4]
 800230a:	2a00      	cmp	r2, #0
 800230c:	f47f af36 	bne.w	800217c <HAL_RCC_OscConfig+0x74>
 8002310:	e7dd      	b.n	80022ce <HAL_RCC_OscConfig+0x1c6>
 8002312:	4a2f      	ldr	r2, [pc, #188]	; (80023d0 <HAL_RCC_OscConfig+0x2c8>)
 8002314:	6813      	ldr	r3, [r2, #0]
 8002316:	f443 3380 	orr.w	r3, r3, #65536	; 0x10000
 800231a:	6013      	str	r3, [r2, #0]
 800231c:	f7fe ffe0 	bl	80012e0 <HAL_GetTick>
 8002320:	4d2b      	ldr	r5, [pc, #172]	; (80023d0 <HAL_RCC_OscConfig+0x2c8>)
 8002322:	4606      	mov	r6, r0
 8002324:	e004      	b.n	8002330 <HAL_RCC_OscConfig+0x228>
 8002326:	f7fe ffdb 	bl	80012e0 <HAL_GetTick>
 800232a:	1b80      	subs	r0, r0, r6
 800232c:	2864      	cmp	r0, #100	; 0x64
 800232e:	d813      	bhi.n	8002358 <HAL_RCC_OscConfig+0x250>
 8002330:	682b      	ldr	r3, [r5, #0]
 8002332:	039a      	lsls	r2, r3, #14
 8002334:	d5f7      	bpl.n	8002326 <HAL_RCC_OscConfig+0x21e>
 8002336:	e720      	b.n	800217a <HAL_RCC_OscConfig+0x72>
 8002338:	682a      	ldr	r2, [r5, #0]
 800233a:	f442 7280 	orr.w	r2, r2, #256	; 0x100
 800233e:	602a      	str	r2, [r5, #0]
 8002340:	f7fe ffce 	bl	80012e0 <HAL_GetTick>
 8002344:	4607      	mov	r7, r0
 8002346:	682b      	ldr	r3, [r5, #0]
 8002348:	05da      	lsls	r2, r3, #23
 800234a:	f53f af49 	bmi.w	80021e0 <HAL_RCC_OscConfig+0xd8>
 800234e:	f7fe ffc7 	bl	80012e0 <HAL_GetTick>
 8002352:	1bc0      	subs	r0, r0, r7
 8002354:	2802      	cmp	r0, #2
 8002356:	d9f6      	bls.n	8002346 <HAL_RCC_OscConfig+0x23e>
 8002358:	2003      	movs	r0, #3
 800235a:	b002      	add	sp, #8
 800235c:	e8bd 81f0 	ldmia.w	sp!, {r4, r5, r6, r7, r8, pc}
 8002360:	491b      	ldr	r1, [pc, #108]	; (80023d0 <HAL_RCC_OscConfig+0x2c8>)
 8002362:	6920      	ldr	r0, [r4, #16]
 8002364:	680a      	ldr	r2, [r1, #0]
 8002366:	f022 02f8 	bic.w	r2, r2, #248	; 0xf8
 800236a:	ea42 02c0 	orr.w	r2, r2, r0, lsl #3
 800236e:	600a      	str	r2, [r1, #0]
 8002370:	e706      	b.n	8002180 <HAL_RCC_OscConfig+0x78>
 8002372:	2001      	movs	r0, #1
 8002374:	4770      	bx	lr
 8002376:	2600      	movs	r6, #0
 8002378:	e72d      	b.n	80021d6 <HAL_RCC_OscConfig+0xce>
 800237a:	4a15      	ldr	r2, [pc, #84]	; (80023d0 <HAL_RCC_OscConfig+0x2c8>)
 800237c:	6f13      	ldr	r3, [r2, #112]	; 0x70
 800237e:	f043 0301 	orr.w	r3, r3, #1
 8002382:	6713      	str	r3, [r2, #112]	; 0x70
 8002384:	f7fe ffac 	bl	80012e0 <HAL_GetTick>
 8002388:	4d11      	ldr	r5, [pc, #68]	; (80023d0 <HAL_RCC_OscConfig+0x2c8>)
 800238a:	4680      	mov	r8, r0
 800238c:	f241 3788 	movw	r7, #5000	; 0x1388
 8002390:	e005      	b.n	800239e <HAL_RCC_OscConfig+0x296>
 8002392:	f7fe ffa5 	bl	80012e0 <HAL_GetTick>
 8002396:	eba0 0008 	sub.w	r0, r0, r8
 800239a:	42b8      	cmp	r0, r7
 800239c:	d8dc      	bhi.n	8002358 <HAL_RCC_OscConfig+0x250>
 800239e:	6f2b      	ldr	r3, [r5, #112]	; 0x70
 80023a0:	079b      	lsls	r3, r3, #30
 80023a2:	d5f6      	bpl.n	8002392 <HAL_RCC_OscConfig+0x28a>
 80023a4:	2e00      	cmp	r6, #0
 80023a6:	f43f af41 	beq.w	800222c <HAL_RCC_OscConfig+0x124>
 80023aa:	e01b      	b.n	80023e4 <HAL_RCC_OscConfig+0x2dc>
 80023ac:	4a0c      	ldr	r2, [pc, #48]	; (80023e0 <HAL_RCC_OscConfig+0x2d8>)
 80023ae:	4d08      	ldr	r5, [pc, #32]	; (80023d0 <HAL_RCC_OscConfig+0x2c8>)
 80023b0:	6013      	str	r3, [r2, #0]
 80023b2:	f7fe ff95 	bl	80012e0 <HAL_GetTick>
 80023b6:	4606      	mov	r6, r0
 80023b8:	e004      	b.n	80023c4 <HAL_RCC_OscConfig+0x2bc>
 80023ba:	f7fe ff91 	bl	80012e0 <HAL_GetTick>
 80023be:	1b80      	subs	r0, r0, r6
 80023c0:	2802      	cmp	r0, #2
 80023c2:	d8c9      	bhi.n	8002358 <HAL_RCC_OscConfig+0x250>
 80023c4:	682b      	ldr	r3, [r5, #0]
 80023c6:	0799      	lsls	r1, r3, #30
 80023c8:	d4f7      	bmi.n	80023ba <HAL_RCC_OscConfig+0x2b2>
 80023ca:	6823      	ldr	r3, [r4, #0]
 80023cc:	e6d8      	b.n	8002180 <HAL_RCC_OscConfig+0x78>
 80023ce:	bf00      	nop
 80023d0:	40023800 	.word	0x40023800
 80023d4:	42470e80 	.word	0x42470e80
 80023d8:	40007000 	.word	0x40007000
 80023dc:	42470060 	.word	0x42470060
 80023e0:	42470000 	.word	0x42470000
 80023e4:	4a35      	ldr	r2, [pc, #212]	; (80024bc <HAL_RCC_OscConfig+0x3b4>)
 80023e6:	6c13      	ldr	r3, [r2, #64]	; 0x40
 80023e8:	f023 5380 	bic.w	r3, r3, #268435456	; 0x10000000
 80023ec:	6413      	str	r3, [r2, #64]	; 0x40
 80023ee:	e71d      	b.n	800222c <HAL_RCC_OscConfig+0x124>
 80023f0:	2801      	cmp	r0, #1
 80023f2:	f43f af6d 	beq.w	80022d0 <HAL_RCC_OscConfig+0x1c8>
 80023f6:	68ab      	ldr	r3, [r5, #8]
 80023f8:	69e2      	ldr	r2, [r4, #28]
 80023fa:	f403 0180 	and.w	r1, r3, #4194304	; 0x400000
 80023fe:	4291      	cmp	r1, r2
 8002400:	f47f af65 	bne.w	80022ce <HAL_RCC_OscConfig+0x1c6>
 8002404:	6a22      	ldr	r2, [r4, #32]
 8002406:	f003 013f 	and.w	r1, r3, #63	; 0x3f
 800240a:	4291      	cmp	r1, r2
 800240c:	f47f af5f 	bne.w	80022ce <HAL_RCC_OscConfig+0x1c6>
 8002410:	f647 72c0 	movw	r2, #32704	; 0x7fc0
 8002414:	6a61      	ldr	r1, [r4, #36]	; 0x24
 8002416:	401a      	ands	r2, r3
 8002418:	428a      	cmp	r2, r1
 800241a:	f47f af58 	bne.w	80022ce <HAL_RCC_OscConfig+0x1c6>
 800241e:	6aa2      	ldr	r2, [r4, #40]	; 0x28
 8002420:	f403 3140 	and.w	r1, r3, #196608	; 0x30000
 8002424:	4291      	cmp	r1, r2
 8002426:	f47f af52 	bne.w	80022ce <HAL_RCC_OscConfig+0x1c6>
 800242a:	6ae0      	ldr	r0, [r4, #44]	; 0x2c
 800242c:	f003 6370 	and.w	r3, r3, #251658240	; 0xf000000
 8002430:	1a18      	subs	r0, r3, r0
 8002432:	bf18      	it	ne
 8002434:	2001      	movne	r0, #1
 8002436:	e74b      	b.n	80022d0 <HAL_RCC_OscConfig+0x1c8>
 8002438:	4b20      	ldr	r3, [pc, #128]	; (80024bc <HAL_RCC_OscConfig+0x3b4>)
 800243a:	681a      	ldr	r2, [r3, #0]
 800243c:	f442 2280 	orr.w	r2, r2, #262144	; 0x40000
 8002440:	601a      	str	r2, [r3, #0]
 8002442:	681a      	ldr	r2, [r3, #0]
 8002444:	f442 3280 	orr.w	r2, r2, #65536	; 0x10000
 8002448:	601a      	str	r2, [r3, #0]
 800244a:	e767      	b.n	800231c <HAL_RCC_OscConfig+0x214>
 800244c:	4b1b      	ldr	r3, [pc, #108]	; (80024bc <HAL_RCC_OscConfig+0x3b4>)
 800244e:	6f1a      	ldr	r2, [r3, #112]	; 0x70
 8002450:	f042 0204 	orr.w	r2, r2, #4
 8002454:	671a      	str	r2, [r3, #112]	; 0x70
 8002456:	6f1a      	ldr	r2, [r3, #112]	; 0x70
 8002458:	f042 0201 	orr.w	r2, r2, #1
 800245c:	671a      	str	r2, [r3, #112]	; 0x70
 800245e:	e791      	b.n	8002384 <HAL_RCC_OscConfig+0x27c>
 8002460:	f7fe ff3e 	bl	80012e0 <HAL_GetTick>
 8002464:	4606      	mov	r6, r0
 8002466:	e005      	b.n	8002474 <HAL_RCC_OscConfig+0x36c>
 8002468:	f7fe ff3a 	bl	80012e0 <HAL_GetTick>
 800246c:	1b80      	subs	r0, r0, r6
 800246e:	2802      	cmp	r0, #2
 8002470:	f63f af72 	bhi.w	8002358 <HAL_RCC_OscConfig+0x250>
 8002474:	682b      	ldr	r3, [r5, #0]
 8002476:	0199      	lsls	r1, r3, #6
 8002478:	d4f6      	bmi.n	8002468 <HAL_RCC_OscConfig+0x360>
 800247a:	e9d4 3607 	ldrd	r3, r6, [r4, #28]
 800247e:	e9d4 0209 	ldrd	r0, r2, [r4, #36]	; 0x24
 8002482:	6ae1      	ldr	r1, [r4, #44]	; 0x2c
 8002484:	4c0d      	ldr	r4, [pc, #52]	; (80024bc <HAL_RCC_OscConfig+0x3b4>)
 8002486:	4333      	orrs	r3, r6
 8002488:	ea43 1380 	orr.w	r3, r3, r0, lsl #6
 800248c:	0852      	lsrs	r2, r2, #1
 800248e:	ea43 6301 	orr.w	r3, r3, r1, lsl #24
 8002492:	3a01      	subs	r2, #1
 8002494:	490a      	ldr	r1, [pc, #40]	; (80024c0 <HAL_RCC_OscConfig+0x3b8>)
 8002496:	ea43 4302 	orr.w	r3, r3, r2, lsl #16
 800249a:	2201      	movs	r2, #1
 800249c:	606b      	str	r3, [r5, #4]
 800249e:	600a      	str	r2, [r1, #0]
 80024a0:	f7fe ff1e 	bl	80012e0 <HAL_GetTick>
 80024a4:	4605      	mov	r5, r0
 80024a6:	e005      	b.n	80024b4 <HAL_RCC_OscConfig+0x3ac>
 80024a8:	f7fe ff1a 	bl	80012e0 <HAL_GetTick>
 80024ac:	1b40      	subs	r0, r0, r5
 80024ae:	2802      	cmp	r0, #2
 80024b0:	f63f af52 	bhi.w	8002358 <HAL_RCC_OscConfig+0x250>
 80024b4:	6823      	ldr	r3, [r4, #0]
 80024b6:	019a      	lsls	r2, r3, #6
 80024b8:	d5f6      	bpl.n	80024a8 <HAL_RCC_OscConfig+0x3a0>
 80024ba:	e6d3      	b.n	8002264 <HAL_RCC_OscConfig+0x15c>
 80024bc:	40023800 	.word	0x40023800
 80024c0:	42470060 	.word	0x42470060

080024c4 <HAL_RCC_GetSysClockFreq>:
 80024c4:	4917      	ldr	r1, [pc, #92]	; (8002524 <HAL_RCC_GetSysClockFreq+0x60>)
 80024c6:	b508      	push	{r3, lr}
 80024c8:	688b      	ldr	r3, [r1, #8]
 80024ca:	f003 030c 	and.w	r3, r3, #12
 80024ce:	2b04      	cmp	r3, #4
 80024d0:	d01b      	beq.n	800250a <HAL_RCC_GetSysClockFreq+0x46>
 80024d2:	2b08      	cmp	r3, #8
 80024d4:	d117      	bne.n	8002506 <HAL_RCC_GetSysClockFreq+0x42>
 80024d6:	684a      	ldr	r2, [r1, #4]
 80024d8:	684b      	ldr	r3, [r1, #4]
 80024da:	f413 0380 	ands.w	r3, r3, #4194304	; 0x400000
 80024de:	f002 023f 	and.w	r2, r2, #63	; 0x3f
 80024e2:	d114      	bne.n	800250e <HAL_RCC_GetSysClockFreq+0x4a>
 80024e4:	6849      	ldr	r1, [r1, #4]
 80024e6:	4810      	ldr	r0, [pc, #64]	; (8002528 <HAL_RCC_GetSysClockFreq+0x64>)
 80024e8:	f3c1 1188 	ubfx	r1, r1, #6, #9
 80024ec:	fba1 0100 	umull	r0, r1, r1, r0
 80024f0:	f7fd febe 	bl	8000270 <__aeabi_uldivmod>
 80024f4:	4b0b      	ldr	r3, [pc, #44]	; (8002524 <HAL_RCC_GetSysClockFreq+0x60>)
 80024f6:	685b      	ldr	r3, [r3, #4]
 80024f8:	f3c3 4301 	ubfx	r3, r3, #16, #2
 80024fc:	3301      	adds	r3, #1
 80024fe:	005b      	lsls	r3, r3, #1
 8002500:	fbb0 f0f3 	udiv	r0, r0, r3
 8002504:	bd08      	pop	{r3, pc}
 8002506:	4808      	ldr	r0, [pc, #32]	; (8002528 <HAL_RCC_GetSysClockFreq+0x64>)
 8002508:	bd08      	pop	{r3, pc}
 800250a:	4808      	ldr	r0, [pc, #32]	; (800252c <HAL_RCC_GetSysClockFreq+0x68>)
 800250c:	bd08      	pop	{r3, pc}
 800250e:	684b      	ldr	r3, [r1, #4]
 8002510:	4806      	ldr	r0, [pc, #24]	; (800252c <HAL_RCC_GetSysClockFreq+0x68>)
 8002512:	f3c3 1388 	ubfx	r3, r3, #6, #9
 8002516:	fba3 0100 	umull	r0, r1, r3, r0
 800251a:	2300      	movs	r3, #0
 800251c:	f7fd fea8 	bl	8000270 <__aeabi_uldivmod>
 8002520:	e7e8      	b.n	80024f4 <HAL_RCC_GetSysClockFreq+0x30>
 8002522:	bf00      	nop
 8002524:	40023800 	.word	0x40023800
 8002528:	00f42400 	.word	0x00f42400
 800252c:	017d7840 	.word	0x017d7840

08002530 <HAL_RCC_ClockConfig>:
 8002530:	b160      	cbz	r0, 800254c <HAL_RCC_ClockConfig+0x1c>
 8002532:	4a49      	ldr	r2, [pc, #292]	; (8002658 <HAL_RCC_ClockConfig+0x128>)
 8002534:	6813      	ldr	r3, [r2, #0]
 8002536:	f003 030f 	and.w	r3, r3, #15
 800253a:	428b      	cmp	r3, r1
 800253c:	d208      	bcs.n	8002550 <HAL_RCC_ClockConfig+0x20>
 800253e:	b2cb      	uxtb	r3, r1
 8002540:	7013      	strb	r3, [r2, #0]
 8002542:	6813      	ldr	r3, [r2, #0]
 8002544:	f003 030f 	and.w	r3, r3, #15
 8002548:	428b      	cmp	r3, r1
 800254a:	d001      	beq.n	8002550 <HAL_RCC_ClockConfig+0x20>
 800254c:	2001      	movs	r0, #1
 800254e:	4770      	bx	lr
 8002550:	6803      	ldr	r3, [r0, #0]
 8002552:	e92d 41f0 	stmdb	sp!, {r4, r5, r6, r7, r8, lr}
 8002556:	079d      	lsls	r5, r3, #30
 8002558:	d514      	bpl.n	8002584 <HAL_RCC_ClockConfig+0x54>
 800255a:	075c      	lsls	r4, r3, #29
 800255c:	d504      	bpl.n	8002568 <HAL_RCC_ClockConfig+0x38>
 800255e:	4c3f      	ldr	r4, [pc, #252]	; (800265c <HAL_RCC_ClockConfig+0x12c>)
 8002560:	68a2      	ldr	r2, [r4, #8]
 8002562:	f442 52e0 	orr.w	r2, r2, #7168	; 0x1c00
 8002566:	60a2      	str	r2, [r4, #8]
 8002568:	071a      	lsls	r2, r3, #28
 800256a:	d504      	bpl.n	8002576 <HAL_RCC_ClockConfig+0x46>
 800256c:	4c3b      	ldr	r4, [pc, #236]	; (800265c <HAL_RCC_ClockConfig+0x12c>)
 800256e:	68a2      	ldr	r2, [r4, #8]
 8002570:	f442 4260 	orr.w	r2, r2, #57344	; 0xe000
 8002574:	60a2      	str	r2, [r4, #8]
 8002576:	4c39      	ldr	r4, [pc, #228]	; (800265c <HAL_RCC_ClockConfig+0x12c>)
 8002578:	6885      	ldr	r5, [r0, #8]
 800257a:	68a2      	ldr	r2, [r4, #8]
 800257c:	f022 02f0 	bic.w	r2, r2, #240	; 0xf0
 8002580:	432a      	orrs	r2, r5
 8002582:	60a2      	str	r2, [r4, #8]
 8002584:	07df      	lsls	r7, r3, #31
 8002586:	4604      	mov	r4, r0
 8002588:	460d      	mov	r5, r1
 800258a:	d522      	bpl.n	80025d2 <HAL_RCC_ClockConfig+0xa2>
 800258c:	6842      	ldr	r2, [r0, #4]
 800258e:	2a01      	cmp	r2, #1
 8002590:	d057      	beq.n	8002642 <HAL_RCC_ClockConfig+0x112>
 8002592:	1e93      	subs	r3, r2, #2
 8002594:	2b01      	cmp	r3, #1
 8002596:	4b31      	ldr	r3, [pc, #196]	; (800265c <HAL_RCC_ClockConfig+0x12c>)
 8002598:	681b      	ldr	r3, [r3, #0]
 800259a:	d959      	bls.n	8002650 <HAL_RCC_ClockConfig+0x120>
 800259c:	0799      	lsls	r1, r3, #30
 800259e:	d525      	bpl.n	80025ec <HAL_RCC_ClockConfig+0xbc>
 80025a0:	4e2e      	ldr	r6, [pc, #184]	; (800265c <HAL_RCC_ClockConfig+0x12c>)
 80025a2:	68b3      	ldr	r3, [r6, #8]
 80025a4:	f023 0303 	bic.w	r3, r3, #3
 80025a8:	4313      	orrs	r3, r2
 80025aa:	60b3      	str	r3, [r6, #8]
 80025ac:	f7fe fe98 	bl	80012e0 <HAL_GetTick>
 80025b0:	f241 3788 	movw	r7, #5000	; 0x1388
 80025b4:	4680      	mov	r8, r0
 80025b6:	e005      	b.n	80025c4 <HAL_RCC_ClockConfig+0x94>
 80025b8:	f7fe fe92 	bl	80012e0 <HAL_GetTick>
 80025bc:	eba0 0008 	sub.w	r0, r0, r8
 80025c0:	42b8      	cmp	r0, r7
 80025c2:	d843      	bhi.n	800264c <HAL_RCC_ClockConfig+0x11c>
 80025c4:	68b3      	ldr	r3, [r6, #8]
 80025c6:	6862      	ldr	r2, [r4, #4]
 80025c8:	f003 030c 	and.w	r3, r3, #12
 80025cc:	ebb3 0f82 	cmp.w	r3, r2, lsl #2
 80025d0:	d1f2      	bne.n	80025b8 <HAL_RCC_ClockConfig+0x88>
 80025d2:	4a21      	ldr	r2, [pc, #132]	; (8002658 <HAL_RCC_ClockConfig+0x128>)
 80025d4:	6813      	ldr	r3, [r2, #0]
 80025d6:	f003 030f 	and.w	r3, r3, #15
 80025da:	42ab      	cmp	r3, r5
 80025dc:	d909      	bls.n	80025f2 <HAL_RCC_ClockConfig+0xc2>
 80025de:	b2eb      	uxtb	r3, r5
 80025e0:	7013      	strb	r3, [r2, #0]
 80025e2:	6813      	ldr	r3, [r2, #0]
 80025e4:	f003 030f 	and.w	r3, r3, #15
 80025e8:	42ab      	cmp	r3, r5
 80025ea:	d002      	beq.n	80025f2 <HAL_RCC_ClockConfig+0xc2>
 80025ec:	2001      	movs	r0, #1
 80025ee:	e8bd 81f0 	ldmia.w	sp!, {r4, r5, r6, r7, r8, pc}
 80025f2:	6823      	ldr	r3, [r4, #0]
 80025f4:	075a      	lsls	r2, r3, #29
 80025f6:	d506      	bpl.n	8002606 <HAL_RCC_ClockConfig+0xd6>
 80025f8:	4918      	ldr	r1, [pc, #96]	; (800265c <HAL_RCC_ClockConfig+0x12c>)
 80025fa:	68e0      	ldr	r0, [r4, #12]
 80025fc:	688a      	ldr	r2, [r1, #8]
 80025fe:	f422 52e0 	bic.w	r2, r2, #7168	; 0x1c00
 8002602:	4302      	orrs	r2, r0
 8002604:	608a      	str	r2, [r1, #8]
 8002606:	071b      	lsls	r3, r3, #28
 8002608:	d412      	bmi.n	8002630 <HAL_RCC_ClockConfig+0x100>
 800260a:	f7ff ff5b 	bl	80024c4 <HAL_RCC_GetSysClockFreq>
 800260e:	4b13      	ldr	r3, [pc, #76]	; (800265c <HAL_RCC_ClockConfig+0x12c>)
 8002610:	4c13      	ldr	r4, [pc, #76]	; (8002660 <HAL_RCC_ClockConfig+0x130>)
 8002612:	689b      	ldr	r3, [r3, #8]
 8002614:	4913      	ldr	r1, [pc, #76]	; (8002664 <HAL_RCC_ClockConfig+0x134>)
 8002616:	4a14      	ldr	r2, [pc, #80]	; (8002668 <HAL_RCC_ClockConfig+0x138>)
 8002618:	f3c3 1303 	ubfx	r3, r3, #4, #4
 800261c:	5ce3      	ldrb	r3, [r4, r3]
 800261e:	fa20 f303 	lsr.w	r3, r0, r3
 8002622:	6808      	ldr	r0, [r1, #0]
 8002624:	6013      	str	r3, [r2, #0]
 8002626:	f7fe fe11 	bl	800124c <HAL_InitTick>
 800262a:	2000      	movs	r0, #0
 800262c:	e8bd 81f0 	ldmia.w	sp!, {r4, r5, r6, r7, r8, pc}
 8002630:	4a0a      	ldr	r2, [pc, #40]	; (800265c <HAL_RCC_ClockConfig+0x12c>)
 8002632:	6921      	ldr	r1, [r4, #16]
 8002634:	6893      	ldr	r3, [r2, #8]
 8002636:	f423 4360 	bic.w	r3, r3, #57344	; 0xe000
 800263a:	ea43 03c1 	orr.w	r3, r3, r1, lsl #3
 800263e:	6093      	str	r3, [r2, #8]
 8002640:	e7e3      	b.n	800260a <HAL_RCC_ClockConfig+0xda>
 8002642:	4b06      	ldr	r3, [pc, #24]	; (800265c <HAL_RCC_ClockConfig+0x12c>)
 8002644:	681b      	ldr	r3, [r3, #0]
 8002646:	039e      	lsls	r6, r3, #14
 8002648:	d4aa      	bmi.n	80025a0 <HAL_RCC_ClockConfig+0x70>
 800264a:	e7cf      	b.n	80025ec <HAL_RCC_ClockConfig+0xbc>
 800264c:	2003      	movs	r0, #3
 800264e:	e7ed      	b.n	800262c <HAL_RCC_ClockConfig+0xfc>
 8002650:	0198      	lsls	r0, r3, #6
 8002652:	d4a5      	bmi.n	80025a0 <HAL_RCC_ClockConfig+0x70>
 8002654:	e7ca      	b.n	80025ec <HAL_RCC_ClockConfig+0xbc>
 8002656:	bf00      	nop
 8002658:	40023c00 	.word	0x40023c00
 800265c:	40023800 	.word	0x40023800
 8002660:	08004a24 	.word	0x08004a24
 8002664:	2000001c 	.word	0x2000001c
 8002668:	20000014 	.word	0x20000014

0800266c <HAL_RCC_GetPCLK1Freq>:
 800266c:	4b04      	ldr	r3, [pc, #16]	; (8002680 <HAL_RCC_GetPCLK1Freq+0x14>)
 800266e:	4a05      	ldr	r2, [pc, #20]	; (8002684 <HAL_RCC_GetPCLK1Freq+0x18>)
 8002670:	689b      	ldr	r3, [r3, #8]
 8002672:	4905      	ldr	r1, [pc, #20]	; (8002688 <HAL_RCC_GetPCLK1Freq+0x1c>)
 8002674:	f3c3 2382 	ubfx	r3, r3, #10, #3
 8002678:	6808      	ldr	r0, [r1, #0]
 800267a:	5cd3      	ldrb	r3, [r2, r3]
 800267c:	40d8      	lsrs	r0, r3
 800267e:	4770      	bx	lr
 8002680:	40023800 	.word	0x40023800
 8002684:	08004a34 	.word	0x08004a34
 8002688:	20000014 	.word	0x20000014

0800268c <HAL_TIM_PWM_Start>:
 800268c:	6803      	ldr	r3, [r0, #0]
 800268e:	2201      	movs	r2, #1
 8002690:	6a18      	ldr	r0, [r3, #32]
 8002692:	f001 011f 	and.w	r1, r1, #31
 8002696:	fa02 f101 	lsl.w	r1, r2, r1
 800269a:	ea20 0001 	bic.w	r0, r0, r1
 800269e:	b410      	push	{r4}
 80026a0:	6218      	str	r0, [r3, #32]
 80026a2:	6a1a      	ldr	r2, [r3, #32]
 80026a4:	4c0c      	ldr	r4, [pc, #48]	; (80026d8 <HAL_TIM_PWM_Start+0x4c>)
 80026a6:	4311      	orrs	r1, r2
 80026a8:	42a3      	cmp	r3, r4
 80026aa:	6219      	str	r1, [r3, #32]
 80026ac:	d00f      	beq.n	80026ce <HAL_TIM_PWM_Start+0x42>
 80026ae:	4a0b      	ldr	r2, [pc, #44]	; (80026dc <HAL_TIM_PWM_Start+0x50>)
 80026b0:	4293      	cmp	r3, r2
 80026b2:	d00c      	beq.n	80026ce <HAL_TIM_PWM_Start+0x42>
 80026b4:	689a      	ldr	r2, [r3, #8]
 80026b6:	f002 0207 	and.w	r2, r2, #7
 80026ba:	2a06      	cmp	r2, #6
 80026bc:	d003      	beq.n	80026c6 <HAL_TIM_PWM_Start+0x3a>
 80026be:	681a      	ldr	r2, [r3, #0]
 80026c0:	f042 0201 	orr.w	r2, r2, #1
 80026c4:	601a      	str	r2, [r3, #0]
 80026c6:	2000      	movs	r0, #0
 80026c8:	f85d 4b04 	ldr.w	r4, [sp], #4
 80026cc:	4770      	bx	lr
 80026ce:	6c5a      	ldr	r2, [r3, #68]	; 0x44
 80026d0:	f442 4200 	orr.w	r2, r2, #32768	; 0x8000
 80026d4:	645a      	str	r2, [r3, #68]	; 0x44
 80026d6:	e7ed      	b.n	80026b4 <HAL_TIM_PWM_Start+0x28>
 80026d8:	40010000 	.word	0x40010000
 80026dc:	40010400 	.word	0x40010400

080026e0 <HAL_TIM_IC_Init>:
 80026e0:	2800      	cmp	r0, #0
 80026e2:	d05c      	beq.n	800279e <HAL_TIM_IC_Init+0xbe>
 80026e4:	b5f8      	push	{r3, r4, r5, r6, r7, lr}
 80026e6:	f890 303d 	ldrb.w	r3, [r0, #61]	; 0x3d
 80026ea:	4604      	mov	r4, r0
 80026ec:	f003 02ff 	and.w	r2, r3, #255	; 0xff
 80026f0:	b3bb      	cbz	r3, 8002762 <HAL_TIM_IC_Init+0x82>
 80026f2:	6822      	ldr	r2, [r4, #0]
 80026f4:	4e3a      	ldr	r6, [pc, #232]	; (80027e0 <HAL_TIM_IC_Init+0x100>)
 80026f6:	69a5      	ldr	r5, [r4, #24]
 80026f8:	68e0      	ldr	r0, [r4, #12]
 80026fa:	6861      	ldr	r1, [r4, #4]
 80026fc:	2302      	movs	r3, #2
 80026fe:	f884 303d 	strb.w	r3, [r4, #61]	; 0x3d
 8002702:	42b2      	cmp	r2, r6
 8002704:	6813      	ldr	r3, [r2, #0]
 8002706:	d04c      	beq.n	80027a2 <HAL_TIM_IC_Init+0xc2>
 8002708:	f1b2 4f80 	cmp.w	r2, #1073741824	; 0x40000000
 800270c:	d058      	beq.n	80027c0 <HAL_TIM_IC_Init+0xe0>
 800270e:	f5a6 467c 	sub.w	r6, r6, #64512	; 0xfc00
 8002712:	42b2      	cmp	r2, r6
 8002714:	d02a      	beq.n	800276c <HAL_TIM_IC_Init+0x8c>
 8002716:	f506 6680 	add.w	r6, r6, #1024	; 0x400
 800271a:	42b2      	cmp	r2, r6
 800271c:	d026      	beq.n	800276c <HAL_TIM_IC_Init+0x8c>
 800271e:	f506 6680 	add.w	r6, r6, #1024	; 0x400
 8002722:	42b2      	cmp	r2, r6
 8002724:	d022      	beq.n	800276c <HAL_TIM_IC_Init+0x8c>
 8002726:	f506 4678 	add.w	r6, r6, #63488	; 0xf800
 800272a:	42b2      	cmp	r2, r6
 800272c:	d01e      	beq.n	800276c <HAL_TIM_IC_Init+0x8c>
 800272e:	f506 5670 	add.w	r6, r6, #15360	; 0x3c00
 8002732:	42b2      	cmp	r2, r6
 8002734:	d013      	beq.n	800275e <HAL_TIM_IC_Init+0x7e>
 8002736:	f506 6680 	add.w	r6, r6, #1024	; 0x400
 800273a:	42b2      	cmp	r2, r6
 800273c:	d00f      	beq.n	800275e <HAL_TIM_IC_Init+0x7e>
 800273e:	f506 6680 	add.w	r6, r6, #1024	; 0x400
 8002742:	42b2      	cmp	r2, r6
 8002744:	d00b      	beq.n	800275e <HAL_TIM_IC_Init+0x7e>
 8002746:	f5a6 3698 	sub.w	r6, r6, #77824	; 0x13000
 800274a:	42b2      	cmp	r2, r6
 800274c:	d007      	beq.n	800275e <HAL_TIM_IC_Init+0x7e>
 800274e:	f506 6680 	add.w	r6, r6, #1024	; 0x400
 8002752:	42b2      	cmp	r2, r6
 8002754:	d003      	beq.n	800275e <HAL_TIM_IC_Init+0x7e>
 8002756:	f506 6680 	add.w	r6, r6, #1024	; 0x400
 800275a:	42b2      	cmp	r2, r6
 800275c:	d138      	bne.n	80027d0 <HAL_TIM_IC_Init+0xf0>
 800275e:	6926      	ldr	r6, [r4, #16]
 8002760:	e033      	b.n	80027ca <HAL_TIM_IC_Init+0xea>
 8002762:	f880 203c 	strb.w	r2, [r0, #60]	; 0x3c
 8002766:	f7fe fcc9 	bl	80010fc <HAL_TIM_IC_MspInit>
 800276a:	e7c2      	b.n	80026f2 <HAL_TIM_IC_Init+0x12>
 800276c:	68a6      	ldr	r6, [r4, #8]
 800276e:	4f1d      	ldr	r7, [pc, #116]	; (80027e4 <HAL_TIM_IC_Init+0x104>)
 8002770:	f023 0370 	bic.w	r3, r3, #112	; 0x70
 8002774:	4333      	orrs	r3, r6
 8002776:	6926      	ldr	r6, [r4, #16]
 8002778:	f423 7340 	bic.w	r3, r3, #768	; 0x300
 800277c:	4333      	orrs	r3, r6
 800277e:	f023 0380 	bic.w	r3, r3, #128	; 0x80
 8002782:	432b      	orrs	r3, r5
 8002784:	42ba      	cmp	r2, r7
 8002786:	6013      	str	r3, [r2, #0]
 8002788:	62d0      	str	r0, [r2, #44]	; 0x2c
 800278a:	6291      	str	r1, [r2, #40]	; 0x28
 800278c:	d101      	bne.n	8002792 <HAL_TIM_IC_Init+0xb2>
 800278e:	6963      	ldr	r3, [r4, #20]
 8002790:	6313      	str	r3, [r2, #48]	; 0x30
 8002792:	2301      	movs	r3, #1
 8002794:	6153      	str	r3, [r2, #20]
 8002796:	2000      	movs	r0, #0
 8002798:	f884 303d 	strb.w	r3, [r4, #61]	; 0x3d
 800279c:	bdf8      	pop	{r3, r4, r5, r6, r7, pc}
 800279e:	2001      	movs	r0, #1
 80027a0:	4770      	bx	lr
 80027a2:	68a7      	ldr	r7, [r4, #8]
 80027a4:	6926      	ldr	r6, [r4, #16]
 80027a6:	f023 0370 	bic.w	r3, r3, #112	; 0x70
 80027aa:	433b      	orrs	r3, r7
 80027ac:	f423 7340 	bic.w	r3, r3, #768	; 0x300
 80027b0:	4333      	orrs	r3, r6
 80027b2:	f023 0380 	bic.w	r3, r3, #128	; 0x80
 80027b6:	432b      	orrs	r3, r5
 80027b8:	6013      	str	r3, [r2, #0]
 80027ba:	62d0      	str	r0, [r2, #44]	; 0x2c
 80027bc:	6291      	str	r1, [r2, #40]	; 0x28
 80027be:	e7e6      	b.n	800278e <HAL_TIM_IC_Init+0xae>
 80027c0:	68a7      	ldr	r7, [r4, #8]
 80027c2:	6926      	ldr	r6, [r4, #16]
 80027c4:	f023 0370 	bic.w	r3, r3, #112	; 0x70
 80027c8:	433b      	orrs	r3, r7
 80027ca:	f423 7340 	bic.w	r3, r3, #768	; 0x300
 80027ce:	4333      	orrs	r3, r6
 80027d0:	f023 0380 	bic.w	r3, r3, #128	; 0x80
 80027d4:	432b      	orrs	r3, r5
 80027d6:	6013      	str	r3, [r2, #0]
 80027d8:	62d0      	str	r0, [r2, #44]	; 0x2c
 80027da:	6291      	str	r1, [r2, #40]	; 0x28
 80027dc:	e7d9      	b.n	8002792 <HAL_TIM_IC_Init+0xb2>
 80027de:	bf00      	nop
 80027e0:	40010000 	.word	0x40010000
 80027e4:	40010400 	.word	0x40010400

080027e8 <HAL_TIM_IC_ConfigChannel>:
 80027e8:	f890 303c 	ldrb.w	r3, [r0, #60]	; 0x3c
 80027ec:	2b01      	cmp	r3, #1
 80027ee:	f000 809d 	beq.w	800292c <HAL_TIM_IC_ConfigChannel+0x144>
 80027f2:	b4f0      	push	{r4, r5, r6, r7}
 80027f4:	2302      	movs	r3, #2
 80027f6:	2401      	movs	r4, #1
 80027f8:	f880 403c 	strb.w	r4, [r0, #60]	; 0x3c
 80027fc:	f880 303d 	strb.w	r3, [r0, #61]	; 0x3d
 8002800:	e9d1 5700 	ldrd	r5, r7, [r1]
 8002804:	6803      	ldr	r3, [r0, #0]
 8002806:	e9d1 6402 	ldrd	r6, r4, [r1, #8]
 800280a:	b372      	cbz	r2, 800286a <HAL_TIM_IC_ConfigChannel+0x82>
 800280c:	2a04      	cmp	r2, #4
 800280e:	d06b      	beq.n	80028e8 <HAL_TIM_IC_ConfigChannel+0x100>
 8002810:	2a08      	cmp	r2, #8
 8002812:	6a1a      	ldr	r2, [r3, #32]
 8002814:	f000 808c 	beq.w	8002930 <HAL_TIM_IC_ConfigChannel+0x148>
 8002818:	f422 5280 	bic.w	r2, r2, #4096	; 0x1000
 800281c:	621a      	str	r2, [r3, #32]
 800281e:	69d9      	ldr	r1, [r3, #28]
 8002820:	f8d3 c020 	ldr.w	ip, [r3, #32]
 8002824:	f421 7140 	bic.w	r1, r1, #768	; 0x300
 8002828:	0324      	lsls	r4, r4, #12
 800282a:	032a      	lsls	r2, r5, #12
 800282c:	ea41 2107 	orr.w	r1, r1, r7, lsl #8
 8002830:	b2a4      	uxth	r4, r4
 8002832:	f402 4220 	and.w	r2, r2, #40960	; 0xa000
 8002836:	f421 4170 	bic.w	r1, r1, #61440	; 0xf000
 800283a:	f42c 4c20 	bic.w	ip, ip, #40960	; 0xa000
 800283e:	ea42 020c 	orr.w	r2, r2, ip
 8002842:	430c      	orrs	r4, r1
 8002844:	61dc      	str	r4, [r3, #28]
 8002846:	621a      	str	r2, [r3, #32]
 8002848:	69da      	ldr	r2, [r3, #28]
 800284a:	f422 6240 	bic.w	r2, r2, #3072	; 0xc00
 800284e:	61da      	str	r2, [r3, #28]
 8002850:	69da      	ldr	r2, [r3, #28]
 8002852:	ea42 2606 	orr.w	r6, r2, r6, lsl #8
 8002856:	61de      	str	r6, [r3, #28]
 8002858:	2300      	movs	r3, #0
 800285a:	2201      	movs	r2, #1
 800285c:	f880 203d 	strb.w	r2, [r0, #61]	; 0x3d
 8002860:	f880 303c 	strb.w	r3, [r0, #60]	; 0x3c
 8002864:	bcf0      	pop	{r4, r5, r6, r7}
 8002866:	4618      	mov	r0, r3
 8002868:	4770      	bx	lr
 800286a:	6a1a      	ldr	r2, [r3, #32]
 800286c:	f8df c100 	ldr.w	ip, [pc, #256]	; 8002970 <HAL_TIM_IC_ConfigChannel+0x188>
 8002870:	f022 0201 	bic.w	r2, r2, #1
 8002874:	621a      	str	r2, [r3, #32]
 8002876:	4563      	cmp	r3, ip
 8002878:	6999      	ldr	r1, [r3, #24]
 800287a:	6a1a      	ldr	r2, [r3, #32]
 800287c:	d01d      	beq.n	80028ba <HAL_TIM_IC_ConfigChannel+0xd2>
 800287e:	f1b3 4f80 	cmp.w	r3, #1073741824	; 0x40000000
 8002882:	d01a      	beq.n	80028ba <HAL_TIM_IC_ConfigChannel+0xd2>
 8002884:	f5ac 4c7c 	sub.w	ip, ip, #64512	; 0xfc00
 8002888:	4563      	cmp	r3, ip
 800288a:	d016      	beq.n	80028ba <HAL_TIM_IC_ConfigChannel+0xd2>
 800288c:	f50c 6c80 	add.w	ip, ip, #1024	; 0x400
 8002890:	4563      	cmp	r3, ip
 8002892:	d012      	beq.n	80028ba <HAL_TIM_IC_ConfigChannel+0xd2>
 8002894:	f50c 6c80 	add.w	ip, ip, #1024	; 0x400
 8002898:	4563      	cmp	r3, ip
 800289a:	d00e      	beq.n	80028ba <HAL_TIM_IC_ConfigChannel+0xd2>
 800289c:	f50c 4c78 	add.w	ip, ip, #63488	; 0xf800
 80028a0:	4563      	cmp	r3, ip
 80028a2:	d00a      	beq.n	80028ba <HAL_TIM_IC_ConfigChannel+0xd2>
 80028a4:	f50c 5c70 	add.w	ip, ip, #15360	; 0x3c00
 80028a8:	4563      	cmp	r3, ip
 80028aa:	d006      	beq.n	80028ba <HAL_TIM_IC_ConfigChannel+0xd2>
 80028ac:	f5ac 3c94 	sub.w	ip, ip, #75776	; 0x12800
 80028b0:	4563      	cmp	r3, ip
 80028b2:	d002      	beq.n	80028ba <HAL_TIM_IC_ConfigChannel+0xd2>
 80028b4:	f041 0101 	orr.w	r1, r1, #1
 80028b8:	e002      	b.n	80028c0 <HAL_TIM_IC_ConfigChannel+0xd8>
 80028ba:	f021 0103 	bic.w	r1, r1, #3
 80028be:	4339      	orrs	r1, r7
 80028c0:	0124      	lsls	r4, r4, #4
 80028c2:	f022 070a 	bic.w	r7, r2, #10
 80028c6:	b2e4      	uxtb	r4, r4
 80028c8:	f021 01f0 	bic.w	r1, r1, #240	; 0xf0
 80028cc:	f005 020a 	and.w	r2, r5, #10
 80028d0:	433a      	orrs	r2, r7
 80028d2:	4321      	orrs	r1, r4
 80028d4:	6199      	str	r1, [r3, #24]
 80028d6:	621a      	str	r2, [r3, #32]
 80028d8:	699a      	ldr	r2, [r3, #24]
 80028da:	f022 020c 	bic.w	r2, r2, #12
 80028de:	619a      	str	r2, [r3, #24]
 80028e0:	699a      	ldr	r2, [r3, #24]
 80028e2:	4316      	orrs	r6, r2
 80028e4:	619e      	str	r6, [r3, #24]
 80028e6:	e7b7      	b.n	8002858 <HAL_TIM_IC_ConfigChannel+0x70>
 80028e8:	6a1a      	ldr	r2, [r3, #32]
 80028ea:	f022 0210 	bic.w	r2, r2, #16
 80028ee:	621a      	str	r2, [r3, #32]
 80028f0:	6999      	ldr	r1, [r3, #24]
 80028f2:	f8d3 c020 	ldr.w	ip, [r3, #32]
 80028f6:	f421 7140 	bic.w	r1, r1, #768	; 0x300
 80028fa:	0324      	lsls	r4, r4, #12
 80028fc:	012a      	lsls	r2, r5, #4
 80028fe:	ea41 2107 	orr.w	r1, r1, r7, lsl #8
 8002902:	b2a4      	uxth	r4, r4
 8002904:	f002 02a0 	and.w	r2, r2, #160	; 0xa0
 8002908:	f421 4170 	bic.w	r1, r1, #61440	; 0xf000
 800290c:	f02c 0ca0 	bic.w	ip, ip, #160	; 0xa0
 8002910:	ea42 020c 	orr.w	r2, r2, ip
 8002914:	4321      	orrs	r1, r4
 8002916:	6199      	str	r1, [r3, #24]
 8002918:	621a      	str	r2, [r3, #32]
 800291a:	699a      	ldr	r2, [r3, #24]
 800291c:	f422 6240 	bic.w	r2, r2, #3072	; 0xc00
 8002920:	619a      	str	r2, [r3, #24]
 8002922:	699a      	ldr	r2, [r3, #24]
 8002924:	ea42 2606 	orr.w	r6, r2, r6, lsl #8
 8002928:	619e      	str	r6, [r3, #24]
 800292a:	e795      	b.n	8002858 <HAL_TIM_IC_ConfigChannel+0x70>
 800292c:	2002      	movs	r0, #2
 800292e:	4770      	bx	lr
 8002930:	f422 7280 	bic.w	r2, r2, #256	; 0x100
 8002934:	621a      	str	r2, [r3, #32]
 8002936:	69d9      	ldr	r1, [r3, #28]
 8002938:	f8d3 c020 	ldr.w	ip, [r3, #32]
 800293c:	f021 0103 	bic.w	r1, r1, #3
 8002940:	0124      	lsls	r4, r4, #4
 8002942:	022a      	lsls	r2, r5, #8
 8002944:	4339      	orrs	r1, r7
 8002946:	b2e4      	uxtb	r4, r4
 8002948:	f402 6220 	and.w	r2, r2, #2560	; 0xa00
 800294c:	f021 01f0 	bic.w	r1, r1, #240	; 0xf0
 8002950:	f42c 6c20 	bic.w	ip, ip, #2560	; 0xa00
 8002954:	ea42 020c 	orr.w	r2, r2, ip
 8002958:	4321      	orrs	r1, r4
 800295a:	61d9      	str	r1, [r3, #28]
 800295c:	621a      	str	r2, [r3, #32]
 800295e:	69da      	ldr	r2, [r3, #28]
 8002960:	f022 020c 	bic.w	r2, r2, #12
 8002964:	61da      	str	r2, [r3, #28]
 8002966:	69da      	ldr	r2, [r3, #28]
 8002968:	4316      	orrs	r6, r2
 800296a:	61de      	str	r6, [r3, #28]
 800296c:	e774      	b.n	8002858 <HAL_TIM_IC_ConfigChannel+0x70>
 800296e:	bf00      	nop
 8002970:	40010000 	.word	0x40010000

08002974 <HAL_TIM_SlaveConfigSynchro>:
 8002974:	f890 303c 	ldrb.w	r3, [r0, #60]	; 0x3c
 8002978:	2b01      	cmp	r3, #1
 800297a:	d047      	beq.n	8002a0c <HAL_TIM_SlaveConfigSynchro+0x98>
 800297c:	6802      	ldr	r2, [r0, #0]
 800297e:	2302      	movs	r3, #2
 8002980:	b4f0      	push	{r4, r5, r6, r7}
 8002982:	f880 303d 	strb.w	r3, [r0, #61]	; 0x3d
 8002986:	e9d1 6500 	ldrd	r6, r5, [r1]
 800298a:	6893      	ldr	r3, [r2, #8]
 800298c:	f023 0370 	bic.w	r3, r3, #112	; 0x70
 8002990:	432b      	orrs	r3, r5
 8002992:	4604      	mov	r4, r0
 8002994:	f023 0307 	bic.w	r3, r3, #7
 8002998:	4333      	orrs	r3, r6
 800299a:	2001      	movs	r0, #1
 800299c:	2d50      	cmp	r5, #80	; 0x50
 800299e:	f884 003c 	strb.w	r0, [r4, #60]	; 0x3c
 80029a2:	6093      	str	r3, [r2, #8]
 80029a4:	d04e      	beq.n	8002a44 <HAL_TIM_SlaveConfigSynchro+0xd0>
 80029a6:	d91f      	bls.n	80029e8 <HAL_TIM_SlaveConfigSynchro+0x74>
 80029a8:	2d60      	cmp	r5, #96	; 0x60
 80029aa:	d038      	beq.n	8002a1e <HAL_TIM_SlaveConfigSynchro+0xaa>
 80029ac:	2d70      	cmp	r5, #112	; 0x70
 80029ae:	d10a      	bne.n	80029c6 <HAL_TIM_SlaveConfigSynchro+0x52>
 80029b0:	e9d1 5302 	ldrd	r5, r3, [r1, #8]
 80029b4:	6908      	ldr	r0, [r1, #16]
 80029b6:	6891      	ldr	r1, [r2, #8]
 80029b8:	432b      	orrs	r3, r5
 80029ba:	ea43 2300 	orr.w	r3, r3, r0, lsl #8
 80029be:	f421 417f 	bic.w	r1, r1, #65280	; 0xff00
 80029c2:	430b      	orrs	r3, r1
 80029c4:	6093      	str	r3, [r2, #8]
 80029c6:	68d3      	ldr	r3, [r2, #12]
 80029c8:	f023 0340 	bic.w	r3, r3, #64	; 0x40
 80029cc:	60d3      	str	r3, [r2, #12]
 80029ce:	68d3      	ldr	r3, [r2, #12]
 80029d0:	2501      	movs	r5, #1
 80029d2:	2100      	movs	r1, #0
 80029d4:	f423 4380 	bic.w	r3, r3, #16384	; 0x4000
 80029d8:	60d3      	str	r3, [r2, #12]
 80029da:	4608      	mov	r0, r1
 80029dc:	f884 503d 	strb.w	r5, [r4, #61]	; 0x3d
 80029e0:	f884 103c 	strb.w	r1, [r4, #60]	; 0x3c
 80029e4:	bcf0      	pop	{r4, r5, r6, r7}
 80029e6:	4770      	bx	lr
 80029e8:	2d40      	cmp	r5, #64	; 0x40
 80029ea:	d1ec      	bne.n	80029c6 <HAL_TIM_SlaveConfigSynchro+0x52>
 80029ec:	2e05      	cmp	r6, #5
 80029ee:	d00f      	beq.n	8002a10 <HAL_TIM_SlaveConfigSynchro+0x9c>
 80029f0:	6a15      	ldr	r5, [r2, #32]
 80029f2:	6a10      	ldr	r0, [r2, #32]
 80029f4:	690e      	ldr	r6, [r1, #16]
 80029f6:	f020 0001 	bic.w	r0, r0, #1
 80029fa:	6210      	str	r0, [r2, #32]
 80029fc:	6993      	ldr	r3, [r2, #24]
 80029fe:	f023 03f0 	bic.w	r3, r3, #240	; 0xf0
 8002a02:	ea43 1306 	orr.w	r3, r3, r6, lsl #4
 8002a06:	6193      	str	r3, [r2, #24]
 8002a08:	6215      	str	r5, [r2, #32]
 8002a0a:	e7dc      	b.n	80029c6 <HAL_TIM_SlaveConfigSynchro+0x52>
 8002a0c:	2002      	movs	r0, #2
 8002a0e:	4770      	bx	lr
 8002a10:	2300      	movs	r3, #0
 8002a12:	f884 003d 	strb.w	r0, [r4, #61]	; 0x3d
 8002a16:	f884 303c 	strb.w	r3, [r4, #60]	; 0x3c
 8002a1a:	bcf0      	pop	{r4, r5, r6, r7}
 8002a1c:	4770      	bx	lr
 8002a1e:	6a10      	ldr	r0, [r2, #32]
 8002a20:	688d      	ldr	r5, [r1, #8]
 8002a22:	690e      	ldr	r6, [r1, #16]
 8002a24:	f020 0010 	bic.w	r0, r0, #16
 8002a28:	6210      	str	r0, [r2, #32]
 8002a2a:	6991      	ldr	r1, [r2, #24]
 8002a2c:	6a13      	ldr	r3, [r2, #32]
 8002a2e:	f421 4170 	bic.w	r1, r1, #61440	; 0xf000
 8002a32:	f023 03a0 	bic.w	r3, r3, #160	; 0xa0
 8002a36:	ea41 3106 	orr.w	r1, r1, r6, lsl #12
 8002a3a:	ea43 1305 	orr.w	r3, r3, r5, lsl #4
 8002a3e:	6191      	str	r1, [r2, #24]
 8002a40:	6213      	str	r3, [r2, #32]
 8002a42:	e7c0      	b.n	80029c6 <HAL_TIM_SlaveConfigSynchro+0x52>
 8002a44:	6a15      	ldr	r5, [r2, #32]
 8002a46:	6a16      	ldr	r6, [r2, #32]
 8002a48:	6888      	ldr	r0, [r1, #8]
 8002a4a:	690f      	ldr	r7, [r1, #16]
 8002a4c:	f026 0601 	bic.w	r6, r6, #1
 8002a50:	6216      	str	r6, [r2, #32]
 8002a52:	6993      	ldr	r3, [r2, #24]
 8002a54:	f025 010a 	bic.w	r1, r5, #10
 8002a58:	f023 03f0 	bic.w	r3, r3, #240	; 0xf0
 8002a5c:	4301      	orrs	r1, r0
 8002a5e:	ea43 1307 	orr.w	r3, r3, r7, lsl #4
 8002a62:	6193      	str	r3, [r2, #24]
 8002a64:	6211      	str	r1, [r2, #32]
 8002a66:	e7ae      	b.n	80029c6 <HAL_TIM_SlaveConfigSynchro+0x52>

08002a68 <HAL_TIM_ReadCapturedValue>:
 8002a68:	290c      	cmp	r1, #12
 8002a6a:	d814      	bhi.n	8002a96 <HAL_TIM_ReadCapturedValue+0x2e>
 8002a6c:	e8df f001 	tbb	[pc, r1]
 8002a70:	13131310 	.word	0x13131310
 8002a74:	1313130d 	.word	0x1313130d
 8002a78:	1313130a 	.word	0x1313130a
 8002a7c:	07          	.byte	0x07
 8002a7d:	00          	.byte	0x00
 8002a7e:	6803      	ldr	r3, [r0, #0]
 8002a80:	6c18      	ldr	r0, [r3, #64]	; 0x40
 8002a82:	4770      	bx	lr
 8002a84:	6803      	ldr	r3, [r0, #0]
 8002a86:	6bd8      	ldr	r0, [r3, #60]	; 0x3c
 8002a88:	4770      	bx	lr
 8002a8a:	6803      	ldr	r3, [r0, #0]
 8002a8c:	6b98      	ldr	r0, [r3, #56]	; 0x38
 8002a8e:	4770      	bx	lr
 8002a90:	6803      	ldr	r3, [r0, #0]
 8002a92:	6b58      	ldr	r0, [r3, #52]	; 0x34
 8002a94:	4770      	bx	lr
 8002a96:	2000      	movs	r0, #0
 8002a98:	4770      	bx	lr
 8002a9a:	bf00      	nop

08002a9c <HAL_TIM_PeriodElapsedCallback>:
 8002a9c:	4770      	bx	lr
 8002a9e:	bf00      	nop

08002aa0 <HAL_TIM_OC_DelayElapsedCallback>:
 8002aa0:	4770      	bx	lr
 8002aa2:	bf00      	nop

08002aa4 <HAL_TIM_IC_CaptureCallback>:
 8002aa4:	4770      	bx	lr
 8002aa6:	bf00      	nop

08002aa8 <HAL_TIM_PWM_PulseFinishedCallback>:
 8002aa8:	4770      	bx	lr
 8002aaa:	bf00      	nop

08002aac <HAL_TIM_TriggerCallback>:
 8002aac:	4770      	bx	lr
 8002aae:	bf00      	nop

08002ab0 <HAL_TIM_IRQHandler>:
 8002ab0:	6803      	ldr	r3, [r0, #0]
 8002ab2:	691a      	ldr	r2, [r3, #16]
 8002ab4:	0791      	lsls	r1, r2, #30
 8002ab6:	b510      	push	{r4, lr}
 8002ab8:	4604      	mov	r4, r0
 8002aba:	d502      	bpl.n	8002ac2 <HAL_TIM_IRQHandler+0x12>
 8002abc:	68da      	ldr	r2, [r3, #12]
 8002abe:	0792      	lsls	r2, r2, #30
 8002ac0:	d45f      	bmi.n	8002b82 <HAL_TIM_IRQHandler+0xd2>
 8002ac2:	691a      	ldr	r2, [r3, #16]
 8002ac4:	0750      	lsls	r0, r2, #29
 8002ac6:	d502      	bpl.n	8002ace <HAL_TIM_IRQHandler+0x1e>
 8002ac8:	68da      	ldr	r2, [r3, #12]
 8002aca:	0751      	lsls	r1, r2, #29
 8002acc:	d446      	bmi.n	8002b5c <HAL_TIM_IRQHandler+0xac>
 8002ace:	691a      	ldr	r2, [r3, #16]
 8002ad0:	0712      	lsls	r2, r2, #28
 8002ad2:	d502      	bpl.n	8002ada <HAL_TIM_IRQHandler+0x2a>
 8002ad4:	68da      	ldr	r2, [r3, #12]
 8002ad6:	0710      	lsls	r0, r2, #28
 8002ad8:	d42e      	bmi.n	8002b38 <HAL_TIM_IRQHandler+0x88>
 8002ada:	691a      	ldr	r2, [r3, #16]
 8002adc:	06d2      	lsls	r2, r2, #27
 8002ade:	d502      	bpl.n	8002ae6 <HAL_TIM_IRQHandler+0x36>
 8002ae0:	68da      	ldr	r2, [r3, #12]
 8002ae2:	06d0      	lsls	r0, r2, #27
 8002ae4:	d418      	bmi.n	8002b18 <HAL_TIM_IRQHandler+0x68>
 8002ae6:	691a      	ldr	r2, [r3, #16]
 8002ae8:	07d1      	lsls	r1, r2, #31
 8002aea:	d502      	bpl.n	8002af2 <HAL_TIM_IRQHandler+0x42>
 8002aec:	68da      	ldr	r2, [r3, #12]
 8002aee:	07d2      	lsls	r2, r2, #31
 8002af0:	d45d      	bmi.n	8002bae <HAL_TIM_IRQHandler+0xfe>
 8002af2:	691a      	ldr	r2, [r3, #16]
 8002af4:	0610      	lsls	r0, r2, #24
 8002af6:	d502      	bpl.n	8002afe <HAL_TIM_IRQHandler+0x4e>
 8002af8:	68da      	ldr	r2, [r3, #12]
 8002afa:	0611      	lsls	r1, r2, #24
 8002afc:	d45f      	bmi.n	8002bbe <HAL_TIM_IRQHandler+0x10e>
 8002afe:	691a      	ldr	r2, [r3, #16]
 8002b00:	0652      	lsls	r2, r2, #25
 8002b02:	d502      	bpl.n	8002b0a <HAL_TIM_IRQHandler+0x5a>
 8002b04:	68da      	ldr	r2, [r3, #12]
 8002b06:	0650      	lsls	r0, r2, #25
 8002b08:	d461      	bmi.n	8002bce <HAL_TIM_IRQHandler+0x11e>
 8002b0a:	691a      	ldr	r2, [r3, #16]
 8002b0c:	0691      	lsls	r1, r2, #26
 8002b0e:	d502      	bpl.n	8002b16 <HAL_TIM_IRQHandler+0x66>
 8002b10:	68da      	ldr	r2, [r3, #12]
 8002b12:	0692      	lsls	r2, r2, #26
 8002b14:	d443      	bmi.n	8002b9e <HAL_TIM_IRQHandler+0xee>
 8002b16:	bd10      	pop	{r4, pc}
 8002b18:	f06f 0210 	mvn.w	r2, #16
 8002b1c:	611a      	str	r2, [r3, #16]
 8002b1e:	69db      	ldr	r3, [r3, #28]
 8002b20:	2208      	movs	r2, #8
 8002b22:	f413 7f40 	tst.w	r3, #768	; 0x300
 8002b26:	7722      	strb	r2, [r4, #28]
 8002b28:	4620      	mov	r0, r4
 8002b2a:	d064      	beq.n	8002bf6 <HAL_TIM_IRQHandler+0x146>
 8002b2c:	f7ff ffba 	bl	8002aa4 <HAL_TIM_IC_CaptureCallback>
 8002b30:	2200      	movs	r2, #0
 8002b32:	6823      	ldr	r3, [r4, #0]
 8002b34:	7722      	strb	r2, [r4, #28]
 8002b36:	e7d6      	b.n	8002ae6 <HAL_TIM_IRQHandler+0x36>
 8002b38:	f06f 0208 	mvn.w	r2, #8
 8002b3c:	611a      	str	r2, [r3, #16]
 8002b3e:	69db      	ldr	r3, [r3, #28]
 8002b40:	2204      	movs	r2, #4
 8002b42:	0799      	lsls	r1, r3, #30
 8002b44:	7722      	strb	r2, [r4, #28]
 8002b46:	4620      	mov	r0, r4
 8002b48:	d152      	bne.n	8002bf0 <HAL_TIM_IRQHandler+0x140>
 8002b4a:	f7ff ffa9 	bl	8002aa0 <HAL_TIM_OC_DelayElapsedCallback>
 8002b4e:	4620      	mov	r0, r4
 8002b50:	f7ff ffaa 	bl	8002aa8 <HAL_TIM_PWM_PulseFinishedCallback>
 8002b54:	2200      	movs	r2, #0
 8002b56:	6823      	ldr	r3, [r4, #0]
 8002b58:	7722      	strb	r2, [r4, #28]
 8002b5a:	e7be      	b.n	8002ada <HAL_TIM_IRQHandler+0x2a>
 8002b5c:	f06f 0204 	mvn.w	r2, #4
 8002b60:	611a      	str	r2, [r3, #16]
 8002b62:	699b      	ldr	r3, [r3, #24]
 8002b64:	2202      	movs	r2, #2
 8002b66:	f413 7f40 	tst.w	r3, #768	; 0x300
 8002b6a:	7722      	strb	r2, [r4, #28]
 8002b6c:	4620      	mov	r0, r4
 8002b6e:	d13c      	bne.n	8002bea <HAL_TIM_IRQHandler+0x13a>
 8002b70:	f7ff ff96 	bl	8002aa0 <HAL_TIM_OC_DelayElapsedCallback>
 8002b74:	4620      	mov	r0, r4
 8002b76:	f7ff ff97 	bl	8002aa8 <HAL_TIM_PWM_PulseFinishedCallback>
 8002b7a:	2200      	movs	r2, #0
 8002b7c:	6823      	ldr	r3, [r4, #0]
 8002b7e:	7722      	strb	r2, [r4, #28]
 8002b80:	e7a5      	b.n	8002ace <HAL_TIM_IRQHandler+0x1e>
 8002b82:	f06f 0202 	mvn.w	r2, #2
 8002b86:	611a      	str	r2, [r3, #16]
 8002b88:	699b      	ldr	r3, [r3, #24]
 8002b8a:	2201      	movs	r2, #1
 8002b8c:	079b      	lsls	r3, r3, #30
 8002b8e:	7702      	strb	r2, [r0, #28]
 8002b90:	d025      	beq.n	8002bde <HAL_TIM_IRQHandler+0x12e>
 8002b92:	f7ff ff87 	bl	8002aa4 <HAL_TIM_IC_CaptureCallback>
 8002b96:	2200      	movs	r2, #0
 8002b98:	6823      	ldr	r3, [r4, #0]
 8002b9a:	7722      	strb	r2, [r4, #28]
 8002b9c:	e791      	b.n	8002ac2 <HAL_TIM_IRQHandler+0x12>
 8002b9e:	f06f 0220 	mvn.w	r2, #32
 8002ba2:	4620      	mov	r0, r4
 8002ba4:	611a      	str	r2, [r3, #16]
 8002ba6:	e8bd 4010 	ldmia.w	sp!, {r4, lr}
 8002baa:	f000 b871 	b.w	8002c90 <HAL_TIMEx_CommutCallback>
 8002bae:	f06f 0201 	mvn.w	r2, #1
 8002bb2:	611a      	str	r2, [r3, #16]
 8002bb4:	4620      	mov	r0, r4
 8002bb6:	f7ff ff71 	bl	8002a9c <HAL_TIM_PeriodElapsedCallback>
 8002bba:	6823      	ldr	r3, [r4, #0]
 8002bbc:	e799      	b.n	8002af2 <HAL_TIM_IRQHandler+0x42>
 8002bbe:	f06f 0280 	mvn.w	r2, #128	; 0x80
 8002bc2:	611a      	str	r2, [r3, #16]
 8002bc4:	4620      	mov	r0, r4
 8002bc6:	f000 f865 	bl	8002c94 <HAL_TIMEx_BreakCallback>
 8002bca:	6823      	ldr	r3, [r4, #0]
 8002bcc:	e797      	b.n	8002afe <HAL_TIM_IRQHandler+0x4e>
 8002bce:	f06f 0240 	mvn.w	r2, #64	; 0x40
 8002bd2:	611a      	str	r2, [r3, #16]
 8002bd4:	4620      	mov	r0, r4
 8002bd6:	f7ff ff69 	bl	8002aac <HAL_TIM_TriggerCallback>
 8002bda:	6823      	ldr	r3, [r4, #0]
 8002bdc:	e795      	b.n	8002b0a <HAL_TIM_IRQHandler+0x5a>
 8002bde:	f7ff ff5f 	bl	8002aa0 <HAL_TIM_OC_DelayElapsedCallback>
 8002be2:	4620      	mov	r0, r4
 8002be4:	f7ff ff60 	bl	8002aa8 <HAL_TIM_PWM_PulseFinishedCallback>
 8002be8:	e7d5      	b.n	8002b96 <HAL_TIM_IRQHandler+0xe6>
 8002bea:	f7ff ff5b 	bl	8002aa4 <HAL_TIM_IC_CaptureCallback>
 8002bee:	e7c4      	b.n	8002b7a <HAL_TIM_IRQHandler+0xca>
 8002bf0:	f7ff ff58 	bl	8002aa4 <HAL_TIM_IC_CaptureCallback>
 8002bf4:	e7ae      	b.n	8002b54 <HAL_TIM_IRQHandler+0xa4>
 8002bf6:	f7ff ff53 	bl	8002aa0 <HAL_TIM_OC_DelayElapsedCallback>
 8002bfa:	4620      	mov	r0, r4
 8002bfc:	f7ff ff54 	bl	8002aa8 <HAL_TIM_PWM_PulseFinishedCallback>
 8002c00:	e796      	b.n	8002b30 <HAL_TIM_IRQHandler+0x80>
 8002c02:	bf00      	nop

08002c04 <HAL_TIMEx_MasterConfigSynchronization>:
 8002c04:	f890 303c 	ldrb.w	r3, [r0, #60]	; 0x3c
 8002c08:	2b01      	cmp	r3, #1
 8002c0a:	d03a      	beq.n	8002c82 <HAL_TIMEx_MasterConfigSynchronization+0x7e>
 8002c0c:	6803      	ldr	r3, [r0, #0]
 8002c0e:	2202      	movs	r2, #2
 8002c10:	b470      	push	{r4, r5, r6}
 8002c12:	f880 203d 	strb.w	r2, [r0, #61]	; 0x3d
 8002c16:	685a      	ldr	r2, [r3, #4]
 8002c18:	680e      	ldr	r6, [r1, #0]
 8002c1a:	4d1b      	ldr	r5, [pc, #108]	; (8002c88 <HAL_TIMEx_MasterConfigSynchronization+0x84>)
 8002c1c:	689c      	ldr	r4, [r3, #8]
 8002c1e:	f022 0270 	bic.w	r2, r2, #112	; 0x70
 8002c22:	4332      	orrs	r2, r6
 8002c24:	42ab      	cmp	r3, r5
 8002c26:	f04f 0601 	mov.w	r6, #1
 8002c2a:	f880 603c 	strb.w	r6, [r0, #60]	; 0x3c
 8002c2e:	605a      	str	r2, [r3, #4]
 8002c30:	d019      	beq.n	8002c66 <HAL_TIMEx_MasterConfigSynchronization+0x62>
 8002c32:	f1b3 4f80 	cmp.w	r3, #1073741824	; 0x40000000
 8002c36:	d016      	beq.n	8002c66 <HAL_TIMEx_MasterConfigSynchronization+0x62>
 8002c38:	4a14      	ldr	r2, [pc, #80]	; (8002c8c <HAL_TIMEx_MasterConfigSynchronization+0x88>)
 8002c3a:	4293      	cmp	r3, r2
 8002c3c:	d013      	beq.n	8002c66 <HAL_TIMEx_MasterConfigSynchronization+0x62>
 8002c3e:	f502 6280 	add.w	r2, r2, #1024	; 0x400
 8002c42:	4293      	cmp	r3, r2
 8002c44:	d00f      	beq.n	8002c66 <HAL_TIMEx_MasterConfigSynchronization+0x62>
 8002c46:	f502 6280 	add.w	r2, r2, #1024	; 0x400
 8002c4a:	4293      	cmp	r3, r2
 8002c4c:	d00b      	beq.n	8002c66 <HAL_TIMEx_MasterConfigSynchronization+0x62>
 8002c4e:	f502 4278 	add.w	r2, r2, #63488	; 0xf800
 8002c52:	4293      	cmp	r3, r2
 8002c54:	d007      	beq.n	8002c66 <HAL_TIMEx_MasterConfigSynchronization+0x62>
 8002c56:	f502 5270 	add.w	r2, r2, #15360	; 0x3c00
 8002c5a:	4293      	cmp	r3, r2
 8002c5c:	d003      	beq.n	8002c66 <HAL_TIMEx_MasterConfigSynchronization+0x62>
 8002c5e:	f5a2 3294 	sub.w	r2, r2, #75776	; 0x12800
 8002c62:	4293      	cmp	r3, r2
 8002c64:	d104      	bne.n	8002c70 <HAL_TIMEx_MasterConfigSynchronization+0x6c>
 8002c66:	684a      	ldr	r2, [r1, #4]
 8002c68:	f024 0480 	bic.w	r4, r4, #128	; 0x80
 8002c6c:	4314      	orrs	r4, r2
 8002c6e:	609c      	str	r4, [r3, #8]
 8002c70:	2300      	movs	r3, #0
 8002c72:	2201      	movs	r2, #1
 8002c74:	f880 203d 	strb.w	r2, [r0, #61]	; 0x3d
 8002c78:	f880 303c 	strb.w	r3, [r0, #60]	; 0x3c
 8002c7c:	bc70      	pop	{r4, r5, r6}
 8002c7e:	4618      	mov	r0, r3
 8002c80:	4770      	bx	lr
 8002c82:	2002      	movs	r0, #2
 8002c84:	4770      	bx	lr
 8002c86:	bf00      	nop
 8002c88:	40010000 	.word	0x40010000
 8002c8c:	40000400 	.word	0x40000400

08002c90 <HAL_TIMEx_CommutCallback>:
 8002c90:	4770      	bx	lr
 8002c92:	bf00      	nop

08002c94 <HAL_TIMEx_BreakCallback>:
 8002c94:	4770      	bx	lr
 8002c96:	bf00      	nop

08002c98 <__errno>:
 8002c98:	4b01      	ldr	r3, [pc, #4]	; (8002ca0 <__errno+0x8>)
 8002c9a:	6818      	ldr	r0, [r3, #0]
 8002c9c:	4770      	bx	lr
 8002c9e:	bf00      	nop
 8002ca0:	20000020 	.word	0x20000020

08002ca4 <__libc_init_array>:
 8002ca4:	b570      	push	{r4, r5, r6, lr}
 8002ca6:	4e0d      	ldr	r6, [pc, #52]	; (8002cdc <__libc_init_array+0x38>)
 8002ca8:	4c0d      	ldr	r4, [pc, #52]	; (8002ce0 <__libc_init_array+0x3c>)
 8002caa:	1ba4      	subs	r4, r4, r6
 8002cac:	10a4      	asrs	r4, r4, #2
 8002cae:	2500      	movs	r5, #0
 8002cb0:	42a5      	cmp	r5, r4
 8002cb2:	d109      	bne.n	8002cc8 <__libc_init_array+0x24>
 8002cb4:	4e0b      	ldr	r6, [pc, #44]	; (8002ce4 <__libc_init_array+0x40>)
 8002cb6:	4c0c      	ldr	r4, [pc, #48]	; (8002ce8 <__libc_init_array+0x44>)
 8002cb8:	f000 fc26 	bl	8003508 <_init>
 8002cbc:	1ba4      	subs	r4, r4, r6
 8002cbe:	10a4      	asrs	r4, r4, #2
 8002cc0:	2500      	movs	r5, #0
 8002cc2:	42a5      	cmp	r5, r4
 8002cc4:	d105      	bne.n	8002cd2 <__libc_init_array+0x2e>
 8002cc6:	bd70      	pop	{r4, r5, r6, pc}
 8002cc8:	f856 3025 	ldr.w	r3, [r6, r5, lsl #2]
 8002ccc:	4798      	blx	r3
 8002cce:	3501      	adds	r5, #1
 8002cd0:	e7ee      	b.n	8002cb0 <__libc_init_array+0xc>
 8002cd2:	f856 3025 	ldr.w	r3, [r6, r5, lsl #2]
 8002cd6:	4798      	blx	r3
 8002cd8:	3501      	adds	r5, #1
 8002cda:	e7f2      	b.n	8002cc2 <__libc_init_array+0x1e>
 8002cdc:	08004a78 	.word	0x08004a78
 8002ce0:	08004a78 	.word	0x08004a78
 8002ce4:	08004a78 	.word	0x08004a78
 8002ce8:	08004a7c 	.word	0x08004a7c

08002cec <memset>:
 8002cec:	4402      	add	r2, r0
 8002cee:	4603      	mov	r3, r0
 8002cf0:	4293      	cmp	r3, r2
 8002cf2:	d100      	bne.n	8002cf6 <memset+0xa>
 8002cf4:	4770      	bx	lr
 8002cf6:	f803 1b01 	strb.w	r1, [r3], #1
 8002cfa:	e7f9      	b.n	8002cf0 <memset+0x4>

08002cfc <siprintf>:
 8002cfc:	b40e      	push	{r1, r2, r3}
 8002cfe:	b500      	push	{lr}
 8002d00:	b09c      	sub	sp, #112	; 0x70
 8002d02:	ab1d      	add	r3, sp, #116	; 0x74
 8002d04:	9002      	str	r0, [sp, #8]
 8002d06:	9006      	str	r0, [sp, #24]
 8002d08:	f06f 4100 	mvn.w	r1, #2147483648	; 0x80000000
 8002d0c:	4809      	ldr	r0, [pc, #36]	; (8002d34 <siprintf+0x38>)
 8002d0e:	9107      	str	r1, [sp, #28]
 8002d10:	9104      	str	r1, [sp, #16]
 8002d12:	4909      	ldr	r1, [pc, #36]	; (8002d38 <siprintf+0x3c>)
 8002d14:	f853 2b04 	ldr.w	r2, [r3], #4
 8002d18:	9105      	str	r1, [sp, #20]
 8002d1a:	6800      	ldr	r0, [r0, #0]
 8002d1c:	9301      	str	r3, [sp, #4]
 8002d1e:	a902      	add	r1, sp, #8
 8002d20:	f000 f866 	bl	8002df0 <_svfiprintf_r>
 8002d24:	9b02      	ldr	r3, [sp, #8]
 8002d26:	2200      	movs	r2, #0
 8002d28:	701a      	strb	r2, [r3, #0]
 8002d2a:	b01c      	add	sp, #112	; 0x70
 8002d2c:	f85d eb04 	ldr.w	lr, [sp], #4
 8002d30:	b003      	add	sp, #12
 8002d32:	4770      	bx	lr
 8002d34:	20000020 	.word	0x20000020
 8002d38:	ffff0208 	.word	0xffff0208

08002d3c <__ssputs_r>:
 8002d3c:	e92d 47f0 	stmdb	sp!, {r4, r5, r6, r7, r8, r9, sl, lr}
 8002d40:	688e      	ldr	r6, [r1, #8]
 8002d42:	429e      	cmp	r6, r3
 8002d44:	4682      	mov	sl, r0
 8002d46:	460c      	mov	r4, r1
 8002d48:	4690      	mov	r8, r2
 8002d4a:	4699      	mov	r9, r3
 8002d4c:	d837      	bhi.n	8002dbe <__ssputs_r+0x82>
 8002d4e:	898a      	ldrh	r2, [r1, #12]
 8002d50:	f412 6f90 	tst.w	r2, #1152	; 0x480
 8002d54:	d031      	beq.n	8002dba <__ssputs_r+0x7e>
 8002d56:	6825      	ldr	r5, [r4, #0]
 8002d58:	6909      	ldr	r1, [r1, #16]
 8002d5a:	1a6f      	subs	r7, r5, r1
 8002d5c:	6965      	ldr	r5, [r4, #20]
 8002d5e:	2302      	movs	r3, #2
 8002d60:	eb05 0545 	add.w	r5, r5, r5, lsl #1
 8002d64:	fb95 f5f3 	sdiv	r5, r5, r3
 8002d68:	f109 0301 	add.w	r3, r9, #1
 8002d6c:	443b      	add	r3, r7
 8002d6e:	429d      	cmp	r5, r3
 8002d70:	bf38      	it	cc
 8002d72:	461d      	movcc	r5, r3
 8002d74:	0553      	lsls	r3, r2, #21
 8002d76:	d530      	bpl.n	8002dda <__ssputs_r+0x9e>
 8002d78:	4629      	mov	r1, r5
 8002d7a:	f000 fb2b 	bl	80033d4 <_malloc_r>
 8002d7e:	4606      	mov	r6, r0
 8002d80:	b950      	cbnz	r0, 8002d98 <__ssputs_r+0x5c>
 8002d82:	230c      	movs	r3, #12
 8002d84:	f8ca 3000 	str.w	r3, [sl]
 8002d88:	89a3      	ldrh	r3, [r4, #12]
 8002d8a:	f043 0340 	orr.w	r3, r3, #64	; 0x40
 8002d8e:	81a3      	strh	r3, [r4, #12]
 8002d90:	f04f 30ff 	mov.w	r0, #4294967295
 8002d94:	e8bd 87f0 	ldmia.w	sp!, {r4, r5, r6, r7, r8, r9, sl, pc}
 8002d98:	463a      	mov	r2, r7
 8002d9a:	6921      	ldr	r1, [r4, #16]
 8002d9c:	f000 faa8 	bl	80032f0 <memcpy>
 8002da0:	89a3      	ldrh	r3, [r4, #12]
 8002da2:	f423 6390 	bic.w	r3, r3, #1152	; 0x480
 8002da6:	f043 0380 	orr.w	r3, r3, #128	; 0x80
 8002daa:	81a3      	strh	r3, [r4, #12]
 8002dac:	6126      	str	r6, [r4, #16]
 8002dae:	6165      	str	r5, [r4, #20]
 8002db0:	443e      	add	r6, r7
 8002db2:	1bed      	subs	r5, r5, r7
 8002db4:	6026      	str	r6, [r4, #0]
 8002db6:	60a5      	str	r5, [r4, #8]
 8002db8:	464e      	mov	r6, r9
 8002dba:	454e      	cmp	r6, r9
 8002dbc:	d900      	bls.n	8002dc0 <__ssputs_r+0x84>
 8002dbe:	464e      	mov	r6, r9
 8002dc0:	4632      	mov	r2, r6
 8002dc2:	4641      	mov	r1, r8
 8002dc4:	6820      	ldr	r0, [r4, #0]
 8002dc6:	f000 fa9e 	bl	8003306 <memmove>
 8002dca:	68a3      	ldr	r3, [r4, #8]
 8002dcc:	1b9b      	subs	r3, r3, r6
 8002dce:	60a3      	str	r3, [r4, #8]
 8002dd0:	6823      	ldr	r3, [r4, #0]
 8002dd2:	441e      	add	r6, r3
 8002dd4:	6026      	str	r6, [r4, #0]
 8002dd6:	2000      	movs	r0, #0
 8002dd8:	e7dc      	b.n	8002d94 <__ssputs_r+0x58>
 8002dda:	462a      	mov	r2, r5
 8002ddc:	f000 fb54 	bl	8003488 <_realloc_r>
 8002de0:	4606      	mov	r6, r0
 8002de2:	2800      	cmp	r0, #0
 8002de4:	d1e2      	bne.n	8002dac <__ssputs_r+0x70>
 8002de6:	6921      	ldr	r1, [r4, #16]
 8002de8:	4650      	mov	r0, sl
 8002dea:	f000 faa5 	bl	8003338 <_free_r>
 8002dee:	e7c8      	b.n	8002d82 <__ssputs_r+0x46>

08002df0 <_svfiprintf_r>:
 8002df0:	e92d 4ff0 	stmdb	sp!, {r4, r5, r6, r7, r8, r9, sl, fp, lr}
 8002df4:	461d      	mov	r5, r3
 8002df6:	898b      	ldrh	r3, [r1, #12]
 8002df8:	061f      	lsls	r7, r3, #24
 8002dfa:	b09d      	sub	sp, #116	; 0x74
 8002dfc:	4680      	mov	r8, r0
 8002dfe:	460c      	mov	r4, r1
 8002e00:	4616      	mov	r6, r2
 8002e02:	d50f      	bpl.n	8002e24 <_svfiprintf_r+0x34>
 8002e04:	690b      	ldr	r3, [r1, #16]
 8002e06:	b96b      	cbnz	r3, 8002e24 <_svfiprintf_r+0x34>
 8002e08:	2140      	movs	r1, #64	; 0x40
 8002e0a:	f000 fae3 	bl	80033d4 <_malloc_r>
 8002e0e:	6020      	str	r0, [r4, #0]
 8002e10:	6120      	str	r0, [r4, #16]
 8002e12:	b928      	cbnz	r0, 8002e20 <_svfiprintf_r+0x30>
 8002e14:	230c      	movs	r3, #12
 8002e16:	f8c8 3000 	str.w	r3, [r8]
 8002e1a:	f04f 30ff 	mov.w	r0, #4294967295
 8002e1e:	e0c8      	b.n	8002fb2 <_svfiprintf_r+0x1c2>
 8002e20:	2340      	movs	r3, #64	; 0x40
 8002e22:	6163      	str	r3, [r4, #20]
 8002e24:	2300      	movs	r3, #0
 8002e26:	9309      	str	r3, [sp, #36]	; 0x24
 8002e28:	2320      	movs	r3, #32
 8002e2a:	f88d 3029 	strb.w	r3, [sp, #41]	; 0x29
 8002e2e:	2330      	movs	r3, #48	; 0x30
 8002e30:	f88d 302a 	strb.w	r3, [sp, #42]	; 0x2a
 8002e34:	9503      	str	r5, [sp, #12]
 8002e36:	f04f 0b01 	mov.w	fp, #1
 8002e3a:	4637      	mov	r7, r6
 8002e3c:	463d      	mov	r5, r7
 8002e3e:	f815 3b01 	ldrb.w	r3, [r5], #1
 8002e42:	b10b      	cbz	r3, 8002e48 <_svfiprintf_r+0x58>
 8002e44:	2b25      	cmp	r3, #37	; 0x25
 8002e46:	d13e      	bne.n	8002ec6 <_svfiprintf_r+0xd6>
 8002e48:	ebb7 0a06 	subs.w	sl, r7, r6
 8002e4c:	d00b      	beq.n	8002e66 <_svfiprintf_r+0x76>
 8002e4e:	4653      	mov	r3, sl
 8002e50:	4632      	mov	r2, r6
 8002e52:	4621      	mov	r1, r4
 8002e54:	4640      	mov	r0, r8
 8002e56:	f7ff ff71 	bl	8002d3c <__ssputs_r>
 8002e5a:	3001      	adds	r0, #1
 8002e5c:	f000 80a4 	beq.w	8002fa8 <_svfiprintf_r+0x1b8>
 8002e60:	9b09      	ldr	r3, [sp, #36]	; 0x24
 8002e62:	4453      	add	r3, sl
 8002e64:	9309      	str	r3, [sp, #36]	; 0x24
 8002e66:	783b      	ldrb	r3, [r7, #0]
 8002e68:	2b00      	cmp	r3, #0
 8002e6a:	f000 809d 	beq.w	8002fa8 <_svfiprintf_r+0x1b8>
 8002e6e:	2300      	movs	r3, #0
 8002e70:	f04f 32ff 	mov.w	r2, #4294967295
 8002e74:	e9cd 2305 	strd	r2, r3, [sp, #20]
 8002e78:	9304      	str	r3, [sp, #16]
 8002e7a:	9307      	str	r3, [sp, #28]
 8002e7c:	f88d 3053 	strb.w	r3, [sp, #83]	; 0x53
 8002e80:	931a      	str	r3, [sp, #104]	; 0x68
 8002e82:	462f      	mov	r7, r5
 8002e84:	2205      	movs	r2, #5
 8002e86:	f817 1b01 	ldrb.w	r1, [r7], #1
 8002e8a:	4850      	ldr	r0, [pc, #320]	; (8002fcc <_svfiprintf_r+0x1dc>)
 8002e8c:	f7fd f9a0 	bl	80001d0 <memchr>
 8002e90:	9b04      	ldr	r3, [sp, #16]
 8002e92:	b9d0      	cbnz	r0, 8002eca <_svfiprintf_r+0xda>
 8002e94:	06d9      	lsls	r1, r3, #27
 8002e96:	bf44      	itt	mi
 8002e98:	2220      	movmi	r2, #32
 8002e9a:	f88d 2053 	strbmi.w	r2, [sp, #83]	; 0x53
 8002e9e:	071a      	lsls	r2, r3, #28
 8002ea0:	bf44      	itt	mi
 8002ea2:	222b      	movmi	r2, #43	; 0x2b
 8002ea4:	f88d 2053 	strbmi.w	r2, [sp, #83]	; 0x53
 8002ea8:	782a      	ldrb	r2, [r5, #0]
 8002eaa:	2a2a      	cmp	r2, #42	; 0x2a
 8002eac:	d015      	beq.n	8002eda <_svfiprintf_r+0xea>
 8002eae:	9a07      	ldr	r2, [sp, #28]
 8002eb0:	462f      	mov	r7, r5
 8002eb2:	2000      	movs	r0, #0
 8002eb4:	250a      	movs	r5, #10
 8002eb6:	4639      	mov	r1, r7
 8002eb8:	f811 3b01 	ldrb.w	r3, [r1], #1
 8002ebc:	3b30      	subs	r3, #48	; 0x30
 8002ebe:	2b09      	cmp	r3, #9
 8002ec0:	d94d      	bls.n	8002f5e <_svfiprintf_r+0x16e>
 8002ec2:	b1b8      	cbz	r0, 8002ef4 <_svfiprintf_r+0x104>
 8002ec4:	e00f      	b.n	8002ee6 <_svfiprintf_r+0xf6>
 8002ec6:	462f      	mov	r7, r5
 8002ec8:	e7b8      	b.n	8002e3c <_svfiprintf_r+0x4c>
 8002eca:	4a40      	ldr	r2, [pc, #256]	; (8002fcc <_svfiprintf_r+0x1dc>)
 8002ecc:	1a80      	subs	r0, r0, r2
 8002ece:	fa0b f000 	lsl.w	r0, fp, r0
 8002ed2:	4318      	orrs	r0, r3
 8002ed4:	9004      	str	r0, [sp, #16]
 8002ed6:	463d      	mov	r5, r7
 8002ed8:	e7d3      	b.n	8002e82 <_svfiprintf_r+0x92>
 8002eda:	9a03      	ldr	r2, [sp, #12]
 8002edc:	1d11      	adds	r1, r2, #4
 8002ede:	6812      	ldr	r2, [r2, #0]
 8002ee0:	9103      	str	r1, [sp, #12]
 8002ee2:	2a00      	cmp	r2, #0
 8002ee4:	db01      	blt.n	8002eea <_svfiprintf_r+0xfa>
 8002ee6:	9207      	str	r2, [sp, #28]
 8002ee8:	e004      	b.n	8002ef4 <_svfiprintf_r+0x104>
 8002eea:	4252      	negs	r2, r2
 8002eec:	f043 0302 	orr.w	r3, r3, #2
 8002ef0:	9207      	str	r2, [sp, #28]
 8002ef2:	9304      	str	r3, [sp, #16]
 8002ef4:	783b      	ldrb	r3, [r7, #0]
 8002ef6:	2b2e      	cmp	r3, #46	; 0x2e
 8002ef8:	d10c      	bne.n	8002f14 <_svfiprintf_r+0x124>
 8002efa:	787b      	ldrb	r3, [r7, #1]
 8002efc:	2b2a      	cmp	r3, #42	; 0x2a
 8002efe:	d133      	bne.n	8002f68 <_svfiprintf_r+0x178>
 8002f00:	9b03      	ldr	r3, [sp, #12]
 8002f02:	1d1a      	adds	r2, r3, #4
 8002f04:	681b      	ldr	r3, [r3, #0]
 8002f06:	9203      	str	r2, [sp, #12]
 8002f08:	2b00      	cmp	r3, #0
 8002f0a:	bfb8      	it	lt
 8002f0c:	f04f 33ff 	movlt.w	r3, #4294967295
 8002f10:	3702      	adds	r7, #2
 8002f12:	9305      	str	r3, [sp, #20]
 8002f14:	4d2e      	ldr	r5, [pc, #184]	; (8002fd0 <_svfiprintf_r+0x1e0>)
 8002f16:	7839      	ldrb	r1, [r7, #0]
 8002f18:	2203      	movs	r2, #3
 8002f1a:	4628      	mov	r0, r5
 8002f1c:	f7fd f958 	bl	80001d0 <memchr>
 8002f20:	b138      	cbz	r0, 8002f32 <_svfiprintf_r+0x142>
 8002f22:	2340      	movs	r3, #64	; 0x40
 8002f24:	1b40      	subs	r0, r0, r5
 8002f26:	fa03 f000 	lsl.w	r0, r3, r0
 8002f2a:	9b04      	ldr	r3, [sp, #16]
 8002f2c:	4303      	orrs	r3, r0
 8002f2e:	3701      	adds	r7, #1
 8002f30:	9304      	str	r3, [sp, #16]
 8002f32:	7839      	ldrb	r1, [r7, #0]
 8002f34:	4827      	ldr	r0, [pc, #156]	; (8002fd4 <_svfiprintf_r+0x1e4>)
 8002f36:	f88d 1028 	strb.w	r1, [sp, #40]	; 0x28
 8002f3a:	2206      	movs	r2, #6
 8002f3c:	1c7e      	adds	r6, r7, #1
 8002f3e:	f7fd f947 	bl	80001d0 <memchr>
 8002f42:	2800      	cmp	r0, #0
 8002f44:	d038      	beq.n	8002fb8 <_svfiprintf_r+0x1c8>
 8002f46:	4b24      	ldr	r3, [pc, #144]	; (8002fd8 <_svfiprintf_r+0x1e8>)
 8002f48:	bb13      	cbnz	r3, 8002f90 <_svfiprintf_r+0x1a0>
 8002f4a:	9b03      	ldr	r3, [sp, #12]
 8002f4c:	3307      	adds	r3, #7
 8002f4e:	f023 0307 	bic.w	r3, r3, #7
 8002f52:	3308      	adds	r3, #8
 8002f54:	9303      	str	r3, [sp, #12]
 8002f56:	9b09      	ldr	r3, [sp, #36]	; 0x24
 8002f58:	444b      	add	r3, r9
 8002f5a:	9309      	str	r3, [sp, #36]	; 0x24
 8002f5c:	e76d      	b.n	8002e3a <_svfiprintf_r+0x4a>
 8002f5e:	fb05 3202 	mla	r2, r5, r2, r3
 8002f62:	2001      	movs	r0, #1
 8002f64:	460f      	mov	r7, r1
 8002f66:	e7a6      	b.n	8002eb6 <_svfiprintf_r+0xc6>
 8002f68:	2300      	movs	r3, #0
 8002f6a:	3701      	adds	r7, #1
 8002f6c:	9305      	str	r3, [sp, #20]
 8002f6e:	4619      	mov	r1, r3
 8002f70:	250a      	movs	r5, #10
 8002f72:	4638      	mov	r0, r7
 8002f74:	f810 2b01 	ldrb.w	r2, [r0], #1
 8002f78:	3a30      	subs	r2, #48	; 0x30
 8002f7a:	2a09      	cmp	r2, #9
 8002f7c:	d903      	bls.n	8002f86 <_svfiprintf_r+0x196>
 8002f7e:	2b00      	cmp	r3, #0
 8002f80:	d0c8      	beq.n	8002f14 <_svfiprintf_r+0x124>
 8002f82:	9105      	str	r1, [sp, #20]
 8002f84:	e7c6      	b.n	8002f14 <_svfiprintf_r+0x124>
 8002f86:	fb05 2101 	mla	r1, r5, r1, r2
 8002f8a:	2301      	movs	r3, #1
 8002f8c:	4607      	mov	r7, r0
 8002f8e:	e7f0      	b.n	8002f72 <_svfiprintf_r+0x182>
 8002f90:	ab03      	add	r3, sp, #12
 8002f92:	9300      	str	r3, [sp, #0]
 8002f94:	4622      	mov	r2, r4
 8002f96:	4b11      	ldr	r3, [pc, #68]	; (8002fdc <_svfiprintf_r+0x1ec>)
 8002f98:	a904      	add	r1, sp, #16
 8002f9a:	4640      	mov	r0, r8
 8002f9c:	f3af 8000 	nop.w
 8002fa0:	f1b0 3fff 	cmp.w	r0, #4294967295
 8002fa4:	4681      	mov	r9, r0
 8002fa6:	d1d6      	bne.n	8002f56 <_svfiprintf_r+0x166>
 8002fa8:	89a3      	ldrh	r3, [r4, #12]
 8002faa:	065b      	lsls	r3, r3, #25
 8002fac:	f53f af35 	bmi.w	8002e1a <_svfiprintf_r+0x2a>
 8002fb0:	9809      	ldr	r0, [sp, #36]	; 0x24
 8002fb2:	b01d      	add	sp, #116	; 0x74
 8002fb4:	e8bd 8ff0 	ldmia.w	sp!, {r4, r5, r6, r7, r8, r9, sl, fp, pc}
 8002fb8:	ab03      	add	r3, sp, #12
 8002fba:	9300      	str	r3, [sp, #0]
 8002fbc:	4622      	mov	r2, r4
 8002fbe:	4b07      	ldr	r3, [pc, #28]	; (8002fdc <_svfiprintf_r+0x1ec>)
 8002fc0:	a904      	add	r1, sp, #16
 8002fc2:	4640      	mov	r0, r8
 8002fc4:	f000 f882 	bl	80030cc <_printf_i>
 8002fc8:	e7ea      	b.n	8002fa0 <_svfiprintf_r+0x1b0>
 8002fca:	bf00      	nop
 8002fcc:	08004a3c 	.word	0x08004a3c
 8002fd0:	08004a42 	.word	0x08004a42
 8002fd4:	08004a46 	.word	0x08004a46
 8002fd8:	00000000 	.word	0x00000000
 8002fdc:	08002d3d 	.word	0x08002d3d

08002fe0 <_printf_common>:
 8002fe0:	e92d 47f0 	stmdb	sp!, {r4, r5, r6, r7, r8, r9, sl, lr}
 8002fe4:	4691      	mov	r9, r2
 8002fe6:	461f      	mov	r7, r3
 8002fe8:	688a      	ldr	r2, [r1, #8]
 8002fea:	690b      	ldr	r3, [r1, #16]
 8002fec:	f8dd 8020 	ldr.w	r8, [sp, #32]
 8002ff0:	4293      	cmp	r3, r2
 8002ff2:	bfb8      	it	lt
 8002ff4:	4613      	movlt	r3, r2
 8002ff6:	f8c9 3000 	str.w	r3, [r9]
 8002ffa:	f891 2043 	ldrb.w	r2, [r1, #67]	; 0x43
 8002ffe:	4606      	mov	r6, r0
 8003000:	460c      	mov	r4, r1
 8003002:	b112      	cbz	r2, 800300a <_printf_common+0x2a>
 8003004:	3301      	adds	r3, #1
 8003006:	f8c9 3000 	str.w	r3, [r9]
 800300a:	6823      	ldr	r3, [r4, #0]
 800300c:	0699      	lsls	r1, r3, #26
 800300e:	bf42      	ittt	mi
 8003010:	f8d9 3000 	ldrmi.w	r3, [r9]
 8003014:	3302      	addmi	r3, #2
 8003016:	f8c9 3000 	strmi.w	r3, [r9]
 800301a:	6825      	ldr	r5, [r4, #0]
 800301c:	f015 0506 	ands.w	r5, r5, #6
 8003020:	d107      	bne.n	8003032 <_printf_common+0x52>
 8003022:	f104 0a19 	add.w	sl, r4, #25
 8003026:	68e3      	ldr	r3, [r4, #12]
 8003028:	f8d9 2000 	ldr.w	r2, [r9]
 800302c:	1a9b      	subs	r3, r3, r2
 800302e:	42ab      	cmp	r3, r5
 8003030:	dc28      	bgt.n	8003084 <_printf_common+0xa4>
 8003032:	f894 3043 	ldrb.w	r3, [r4, #67]	; 0x43
 8003036:	6822      	ldr	r2, [r4, #0]
 8003038:	3300      	adds	r3, #0
 800303a:	bf18      	it	ne
 800303c:	2301      	movne	r3, #1
 800303e:	0692      	lsls	r2, r2, #26
 8003040:	d42d      	bmi.n	800309e <_printf_common+0xbe>
 8003042:	f104 0243 	add.w	r2, r4, #67	; 0x43
 8003046:	4639      	mov	r1, r7
 8003048:	4630      	mov	r0, r6
 800304a:	47c0      	blx	r8
 800304c:	3001      	adds	r0, #1
 800304e:	d020      	beq.n	8003092 <_printf_common+0xb2>
 8003050:	6823      	ldr	r3, [r4, #0]
 8003052:	68e5      	ldr	r5, [r4, #12]
 8003054:	f8d9 2000 	ldr.w	r2, [r9]
 8003058:	f003 0306 	and.w	r3, r3, #6
 800305c:	2b04      	cmp	r3, #4
 800305e:	bf08      	it	eq
 8003060:	1aad      	subeq	r5, r5, r2
 8003062:	68a3      	ldr	r3, [r4, #8]
 8003064:	6922      	ldr	r2, [r4, #16]
 8003066:	bf0c      	ite	eq
 8003068:	ea25 75e5 	biceq.w	r5, r5, r5, asr #31
 800306c:	2500      	movne	r5, #0
 800306e:	4293      	cmp	r3, r2
 8003070:	bfc4      	itt	gt
 8003072:	1a9b      	subgt	r3, r3, r2
 8003074:	18ed      	addgt	r5, r5, r3
 8003076:	f04f 0900 	mov.w	r9, #0
 800307a:	341a      	adds	r4, #26
 800307c:	454d      	cmp	r5, r9
 800307e:	d11a      	bne.n	80030b6 <_printf_common+0xd6>
 8003080:	2000      	movs	r0, #0
 8003082:	e008      	b.n	8003096 <_printf_common+0xb6>
 8003084:	2301      	movs	r3, #1
 8003086:	4652      	mov	r2, sl
 8003088:	4639      	mov	r1, r7
 800308a:	4630      	mov	r0, r6
 800308c:	47c0      	blx	r8
 800308e:	3001      	adds	r0, #1
 8003090:	d103      	bne.n	800309a <_printf_common+0xba>
 8003092:	f04f 30ff 	mov.w	r0, #4294967295
 8003096:	e8bd 87f0 	ldmia.w	sp!, {r4, r5, r6, r7, r8, r9, sl, pc}
 800309a:	3501      	adds	r5, #1
 800309c:	e7c3      	b.n	8003026 <_printf_common+0x46>
 800309e:	18e1      	adds	r1, r4, r3
 80030a0:	1c5a      	adds	r2, r3, #1
 80030a2:	2030      	movs	r0, #48	; 0x30
 80030a4:	f881 0043 	strb.w	r0, [r1, #67]	; 0x43
 80030a8:	4422      	add	r2, r4
 80030aa:	f894 1045 	ldrb.w	r1, [r4, #69]	; 0x45
 80030ae:	f882 1043 	strb.w	r1, [r2, #67]	; 0x43
 80030b2:	3302      	adds	r3, #2
 80030b4:	e7c5      	b.n	8003042 <_printf_common+0x62>
 80030b6:	2301      	movs	r3, #1
 80030b8:	4622      	mov	r2, r4
 80030ba:	4639      	mov	r1, r7
 80030bc:	4630      	mov	r0, r6
 80030be:	47c0      	blx	r8
 80030c0:	3001      	adds	r0, #1
 80030c2:	d0e6      	beq.n	8003092 <_printf_common+0xb2>
 80030c4:	f109 0901 	add.w	r9, r9, #1
 80030c8:	e7d8      	b.n	800307c <_printf_common+0x9c>
	...

080030cc <_printf_i>:
 80030cc:	e92d 43f0 	stmdb	sp!, {r4, r5, r6, r7, r8, r9, lr}
 80030d0:	f101 0c43 	add.w	ip, r1, #67	; 0x43
 80030d4:	460c      	mov	r4, r1
 80030d6:	7e09      	ldrb	r1, [r1, #24]
 80030d8:	b085      	sub	sp, #20
 80030da:	296e      	cmp	r1, #110	; 0x6e
 80030dc:	4617      	mov	r7, r2
 80030de:	4606      	mov	r6, r0
 80030e0:	4698      	mov	r8, r3
 80030e2:	9a0c      	ldr	r2, [sp, #48]	; 0x30
 80030e4:	f000 80b3 	beq.w	800324e <_printf_i+0x182>
 80030e8:	d822      	bhi.n	8003130 <_printf_i+0x64>
 80030ea:	2963      	cmp	r1, #99	; 0x63
 80030ec:	d036      	beq.n	800315c <_printf_i+0x90>
 80030ee:	d80a      	bhi.n	8003106 <_printf_i+0x3a>
 80030f0:	2900      	cmp	r1, #0
 80030f2:	f000 80b9 	beq.w	8003268 <_printf_i+0x19c>
 80030f6:	2958      	cmp	r1, #88	; 0x58
 80030f8:	f000 8083 	beq.w	8003202 <_printf_i+0x136>
 80030fc:	f104 0542 	add.w	r5, r4, #66	; 0x42
 8003100:	f884 1042 	strb.w	r1, [r4, #66]	; 0x42
 8003104:	e032      	b.n	800316c <_printf_i+0xa0>
 8003106:	2964      	cmp	r1, #100	; 0x64
 8003108:	d001      	beq.n	800310e <_printf_i+0x42>
 800310a:	2969      	cmp	r1, #105	; 0x69
 800310c:	d1f6      	bne.n	80030fc <_printf_i+0x30>
 800310e:	6820      	ldr	r0, [r4, #0]
 8003110:	6813      	ldr	r3, [r2, #0]
 8003112:	0605      	lsls	r5, r0, #24
 8003114:	f103 0104 	add.w	r1, r3, #4
 8003118:	d52a      	bpl.n	8003170 <_printf_i+0xa4>
 800311a:	681b      	ldr	r3, [r3, #0]
 800311c:	6011      	str	r1, [r2, #0]
 800311e:	2b00      	cmp	r3, #0
 8003120:	da03      	bge.n	800312a <_printf_i+0x5e>
 8003122:	222d      	movs	r2, #45	; 0x2d
 8003124:	425b      	negs	r3, r3
 8003126:	f884 2043 	strb.w	r2, [r4, #67]	; 0x43
 800312a:	486f      	ldr	r0, [pc, #444]	; (80032e8 <_printf_i+0x21c>)
 800312c:	220a      	movs	r2, #10
 800312e:	e039      	b.n	80031a4 <_printf_i+0xd8>
 8003130:	2973      	cmp	r1, #115	; 0x73
 8003132:	f000 809d 	beq.w	8003270 <_printf_i+0x1a4>
 8003136:	d808      	bhi.n	800314a <_printf_i+0x7e>
 8003138:	296f      	cmp	r1, #111	; 0x6f
 800313a:	d020      	beq.n	800317e <_printf_i+0xb2>
 800313c:	2970      	cmp	r1, #112	; 0x70
 800313e:	d1dd      	bne.n	80030fc <_printf_i+0x30>
 8003140:	6823      	ldr	r3, [r4, #0]
 8003142:	f043 0320 	orr.w	r3, r3, #32
 8003146:	6023      	str	r3, [r4, #0]
 8003148:	e003      	b.n	8003152 <_printf_i+0x86>
 800314a:	2975      	cmp	r1, #117	; 0x75
 800314c:	d017      	beq.n	800317e <_printf_i+0xb2>
 800314e:	2978      	cmp	r1, #120	; 0x78
 8003150:	d1d4      	bne.n	80030fc <_printf_i+0x30>
 8003152:	2378      	movs	r3, #120	; 0x78
 8003154:	f884 3045 	strb.w	r3, [r4, #69]	; 0x45
 8003158:	4864      	ldr	r0, [pc, #400]	; (80032ec <_printf_i+0x220>)
 800315a:	e055      	b.n	8003208 <_printf_i+0x13c>
 800315c:	6813      	ldr	r3, [r2, #0]
 800315e:	1d19      	adds	r1, r3, #4
 8003160:	681b      	ldr	r3, [r3, #0]
 8003162:	6011      	str	r1, [r2, #0]
 8003164:	f104 0542 	add.w	r5, r4, #66	; 0x42
 8003168:	f884 3042 	strb.w	r3, [r4, #66]	; 0x42
 800316c:	2301      	movs	r3, #1
 800316e:	e08c      	b.n	800328a <_printf_i+0x1be>
 8003170:	681b      	ldr	r3, [r3, #0]
 8003172:	6011      	str	r1, [r2, #0]
 8003174:	f010 0f40 	tst.w	r0, #64	; 0x40
 8003178:	bf18      	it	ne
 800317a:	b21b      	sxthne	r3, r3
 800317c:	e7cf      	b.n	800311e <_printf_i+0x52>
 800317e:	6813      	ldr	r3, [r2, #0]
 8003180:	6825      	ldr	r5, [r4, #0]
 8003182:	1d18      	adds	r0, r3, #4
 8003184:	6010      	str	r0, [r2, #0]
 8003186:	0628      	lsls	r0, r5, #24
 8003188:	d501      	bpl.n	800318e <_printf_i+0xc2>
 800318a:	681b      	ldr	r3, [r3, #0]
 800318c:	e002      	b.n	8003194 <_printf_i+0xc8>
 800318e:	0668      	lsls	r0, r5, #25
 8003190:	d5fb      	bpl.n	800318a <_printf_i+0xbe>
 8003192:	881b      	ldrh	r3, [r3, #0]
 8003194:	4854      	ldr	r0, [pc, #336]	; (80032e8 <_printf_i+0x21c>)
 8003196:	296f      	cmp	r1, #111	; 0x6f
 8003198:	bf14      	ite	ne
 800319a:	220a      	movne	r2, #10
 800319c:	2208      	moveq	r2, #8
 800319e:	2100      	movs	r1, #0
 80031a0:	f884 1043 	strb.w	r1, [r4, #67]	; 0x43
 80031a4:	6865      	ldr	r5, [r4, #4]
 80031a6:	60a5      	str	r5, [r4, #8]
 80031a8:	2d00      	cmp	r5, #0
 80031aa:	f2c0 8095 	blt.w	80032d8 <_printf_i+0x20c>
 80031ae:	6821      	ldr	r1, [r4, #0]
 80031b0:	f021 0104 	bic.w	r1, r1, #4
 80031b4:	6021      	str	r1, [r4, #0]
 80031b6:	2b00      	cmp	r3, #0
 80031b8:	d13d      	bne.n	8003236 <_printf_i+0x16a>
 80031ba:	2d00      	cmp	r5, #0
 80031bc:	f040 808e 	bne.w	80032dc <_printf_i+0x210>
 80031c0:	4665      	mov	r5, ip
 80031c2:	2a08      	cmp	r2, #8
 80031c4:	d10b      	bne.n	80031de <_printf_i+0x112>
 80031c6:	6823      	ldr	r3, [r4, #0]
 80031c8:	07db      	lsls	r3, r3, #31
 80031ca:	d508      	bpl.n	80031de <_printf_i+0x112>
 80031cc:	6923      	ldr	r3, [r4, #16]
 80031ce:	6862      	ldr	r2, [r4, #4]
 80031d0:	429a      	cmp	r2, r3
 80031d2:	bfde      	ittt	le
 80031d4:	2330      	movle	r3, #48	; 0x30
 80031d6:	f805 3c01 	strble.w	r3, [r5, #-1]
 80031da:	f105 35ff 	addle.w	r5, r5, #4294967295
 80031de:	ebac 0305 	sub.w	r3, ip, r5
 80031e2:	6123      	str	r3, [r4, #16]
 80031e4:	f8cd 8000 	str.w	r8, [sp]
 80031e8:	463b      	mov	r3, r7
 80031ea:	aa03      	add	r2, sp, #12
 80031ec:	4621      	mov	r1, r4
 80031ee:	4630      	mov	r0, r6
 80031f0:	f7ff fef6 	bl	8002fe0 <_printf_common>
 80031f4:	3001      	adds	r0, #1
 80031f6:	d14d      	bne.n	8003294 <_printf_i+0x1c8>
 80031f8:	f04f 30ff 	mov.w	r0, #4294967295
 80031fc:	b005      	add	sp, #20
 80031fe:	e8bd 83f0 	ldmia.w	sp!, {r4, r5, r6, r7, r8, r9, pc}
 8003202:	4839      	ldr	r0, [pc, #228]	; (80032e8 <_printf_i+0x21c>)
 8003204:	f884 1045 	strb.w	r1, [r4, #69]	; 0x45
 8003208:	6813      	ldr	r3, [r2, #0]
 800320a:	6821      	ldr	r1, [r4, #0]
 800320c:	1d1d      	adds	r5, r3, #4
 800320e:	681b      	ldr	r3, [r3, #0]
 8003210:	6015      	str	r5, [r2, #0]
 8003212:	060a      	lsls	r2, r1, #24
 8003214:	d50b      	bpl.n	800322e <_printf_i+0x162>
 8003216:	07ca      	lsls	r2, r1, #31
 8003218:	bf44      	itt	mi
 800321a:	f041 0120 	orrmi.w	r1, r1, #32
 800321e:	6021      	strmi	r1, [r4, #0]
 8003220:	b91b      	cbnz	r3, 800322a <_printf_i+0x15e>
 8003222:	6822      	ldr	r2, [r4, #0]
 8003224:	f022 0220 	bic.w	r2, r2, #32
 8003228:	6022      	str	r2, [r4, #0]
 800322a:	2210      	movs	r2, #16
 800322c:	e7b7      	b.n	800319e <_printf_i+0xd2>
 800322e:	064d      	lsls	r5, r1, #25
 8003230:	bf48      	it	mi
 8003232:	b29b      	uxthmi	r3, r3
 8003234:	e7ef      	b.n	8003216 <_printf_i+0x14a>
 8003236:	4665      	mov	r5, ip
 8003238:	fbb3 f1f2 	udiv	r1, r3, r2
 800323c:	fb02 3311 	mls	r3, r2, r1, r3
 8003240:	5cc3      	ldrb	r3, [r0, r3]
 8003242:	f805 3d01 	strb.w	r3, [r5, #-1]!
 8003246:	460b      	mov	r3, r1
 8003248:	2900      	cmp	r1, #0
 800324a:	d1f5      	bne.n	8003238 <_printf_i+0x16c>
 800324c:	e7b9      	b.n	80031c2 <_printf_i+0xf6>
 800324e:	6813      	ldr	r3, [r2, #0]
 8003250:	6825      	ldr	r5, [r4, #0]
 8003252:	6961      	ldr	r1, [r4, #20]
 8003254:	1d18      	adds	r0, r3, #4
 8003256:	6010      	str	r0, [r2, #0]
 8003258:	0628      	lsls	r0, r5, #24
 800325a:	681b      	ldr	r3, [r3, #0]
 800325c:	d501      	bpl.n	8003262 <_printf_i+0x196>
 800325e:	6019      	str	r1, [r3, #0]
 8003260:	e002      	b.n	8003268 <_printf_i+0x19c>
 8003262:	066a      	lsls	r2, r5, #25
 8003264:	d5fb      	bpl.n	800325e <_printf_i+0x192>
 8003266:	8019      	strh	r1, [r3, #0]
 8003268:	2300      	movs	r3, #0
 800326a:	6123      	str	r3, [r4, #16]
 800326c:	4665      	mov	r5, ip
 800326e:	e7b9      	b.n	80031e4 <_printf_i+0x118>
 8003270:	6813      	ldr	r3, [r2, #0]
 8003272:	1d19      	adds	r1, r3, #4
 8003274:	6011      	str	r1, [r2, #0]
 8003276:	681d      	ldr	r5, [r3, #0]
 8003278:	6862      	ldr	r2, [r4, #4]
 800327a:	2100      	movs	r1, #0
 800327c:	4628      	mov	r0, r5
 800327e:	f7fc ffa7 	bl	80001d0 <memchr>
 8003282:	b108      	cbz	r0, 8003288 <_printf_i+0x1bc>
 8003284:	1b40      	subs	r0, r0, r5
 8003286:	6060      	str	r0, [r4, #4]
 8003288:	6863      	ldr	r3, [r4, #4]
 800328a:	6123      	str	r3, [r4, #16]
 800328c:	2300      	movs	r3, #0
 800328e:	f884 3043 	strb.w	r3, [r4, #67]	; 0x43
 8003292:	e7a7      	b.n	80031e4 <_printf_i+0x118>
 8003294:	6923      	ldr	r3, [r4, #16]
 8003296:	462a      	mov	r2, r5
 8003298:	4639      	mov	r1, r7
 800329a:	4630      	mov	r0, r6
 800329c:	47c0      	blx	r8
 800329e:	3001      	adds	r0, #1
 80032a0:	d0aa      	beq.n	80031f8 <_printf_i+0x12c>
 80032a2:	6823      	ldr	r3, [r4, #0]
 80032a4:	079b      	lsls	r3, r3, #30
 80032a6:	d413      	bmi.n	80032d0 <_printf_i+0x204>
 80032a8:	68e0      	ldr	r0, [r4, #12]
 80032aa:	9b03      	ldr	r3, [sp, #12]
 80032ac:	4298      	cmp	r0, r3
 80032ae:	bfb8      	it	lt
 80032b0:	4618      	movlt	r0, r3
 80032b2:	e7a3      	b.n	80031fc <_printf_i+0x130>
 80032b4:	2301      	movs	r3, #1
 80032b6:	464a      	mov	r2, r9
 80032b8:	4639      	mov	r1, r7
 80032ba:	4630      	mov	r0, r6
 80032bc:	47c0      	blx	r8
 80032be:	3001      	adds	r0, #1
 80032c0:	d09a      	beq.n	80031f8 <_printf_i+0x12c>
 80032c2:	3501      	adds	r5, #1
 80032c4:	68e3      	ldr	r3, [r4, #12]
 80032c6:	9a03      	ldr	r2, [sp, #12]
 80032c8:	1a9b      	subs	r3, r3, r2
 80032ca:	42ab      	cmp	r3, r5
 80032cc:	dcf2      	bgt.n	80032b4 <_printf_i+0x1e8>
 80032ce:	e7eb      	b.n	80032a8 <_printf_i+0x1dc>
 80032d0:	2500      	movs	r5, #0
 80032d2:	f104 0919 	add.w	r9, r4, #25
 80032d6:	e7f5      	b.n	80032c4 <_printf_i+0x1f8>
 80032d8:	2b00      	cmp	r3, #0
 80032da:	d1ac      	bne.n	8003236 <_printf_i+0x16a>
 80032dc:	7803      	ldrb	r3, [r0, #0]
 80032de:	f884 3042 	strb.w	r3, [r4, #66]	; 0x42
 80032e2:	f104 0542 	add.w	r5, r4, #66	; 0x42
 80032e6:	e76c      	b.n	80031c2 <_printf_i+0xf6>
 80032e8:	08004a4d 	.word	0x08004a4d
 80032ec:	08004a5e 	.word	0x08004a5e

080032f0 <memcpy>:
 80032f0:	b510      	push	{r4, lr}
 80032f2:	1e43      	subs	r3, r0, #1
 80032f4:	440a      	add	r2, r1
 80032f6:	4291      	cmp	r1, r2
 80032f8:	d100      	bne.n	80032fc <memcpy+0xc>
 80032fa:	bd10      	pop	{r4, pc}
 80032fc:	f811 4b01 	ldrb.w	r4, [r1], #1
 8003300:	f803 4f01 	strb.w	r4, [r3, #1]!
 8003304:	e7f7      	b.n	80032f6 <memcpy+0x6>

08003306 <memmove>:
 8003306:	4288      	cmp	r0, r1
 8003308:	b510      	push	{r4, lr}
 800330a:	eb01 0302 	add.w	r3, r1, r2
 800330e:	d807      	bhi.n	8003320 <memmove+0x1a>
 8003310:	1e42      	subs	r2, r0, #1
 8003312:	4299      	cmp	r1, r3
 8003314:	d00a      	beq.n	800332c <memmove+0x26>
 8003316:	f811 4b01 	ldrb.w	r4, [r1], #1
 800331a:	f802 4f01 	strb.w	r4, [r2, #1]!
 800331e:	e7f8      	b.n	8003312 <memmove+0xc>
 8003320:	4283      	cmp	r3, r0
 8003322:	d9f5      	bls.n	8003310 <memmove+0xa>
 8003324:	1881      	adds	r1, r0, r2
 8003326:	1ad2      	subs	r2, r2, r3
 8003328:	42d3      	cmn	r3, r2
 800332a:	d100      	bne.n	800332e <memmove+0x28>
 800332c:	bd10      	pop	{r4, pc}
 800332e:	f813 4d01 	ldrb.w	r4, [r3, #-1]!
 8003332:	f801 4d01 	strb.w	r4, [r1, #-1]!
 8003336:	e7f7      	b.n	8003328 <memmove+0x22>

08003338 <_free_r>:
 8003338:	b538      	push	{r3, r4, r5, lr}
 800333a:	4605      	mov	r5, r0
 800333c:	2900      	cmp	r1, #0
 800333e:	d045      	beq.n	80033cc <_free_r+0x94>
 8003340:	f851 3c04 	ldr.w	r3, [r1, #-4]
 8003344:	1f0c      	subs	r4, r1, #4
 8003346:	2b00      	cmp	r3, #0
 8003348:	bfb8      	it	lt
 800334a:	18e4      	addlt	r4, r4, r3
 800334c:	f000 f8d2 	bl	80034f4 <__malloc_lock>
 8003350:	4a1f      	ldr	r2, [pc, #124]	; (80033d0 <_free_r+0x98>)
 8003352:	6813      	ldr	r3, [r2, #0]
 8003354:	4610      	mov	r0, r2
 8003356:	b933      	cbnz	r3, 8003366 <_free_r+0x2e>
 8003358:	6063      	str	r3, [r4, #4]
 800335a:	6014      	str	r4, [r2, #0]
 800335c:	4628      	mov	r0, r5
 800335e:	e8bd 4038 	ldmia.w	sp!, {r3, r4, r5, lr}
 8003362:	f000 b8c8 	b.w	80034f6 <__malloc_unlock>
 8003366:	42a3      	cmp	r3, r4
 8003368:	d90c      	bls.n	8003384 <_free_r+0x4c>
 800336a:	6821      	ldr	r1, [r4, #0]
 800336c:	1862      	adds	r2, r4, r1
 800336e:	4293      	cmp	r3, r2
 8003370:	bf04      	itt	eq
 8003372:	681a      	ldreq	r2, [r3, #0]
 8003374:	685b      	ldreq	r3, [r3, #4]
 8003376:	6063      	str	r3, [r4, #4]
 8003378:	bf04      	itt	eq
 800337a:	1852      	addeq	r2, r2, r1
 800337c:	6022      	streq	r2, [r4, #0]
 800337e:	6004      	str	r4, [r0, #0]
 8003380:	e7ec      	b.n	800335c <_free_r+0x24>
 8003382:	4613      	mov	r3, r2
 8003384:	685a      	ldr	r2, [r3, #4]
 8003386:	b10a      	cbz	r2, 800338c <_free_r+0x54>
 8003388:	42a2      	cmp	r2, r4
 800338a:	d9fa      	bls.n	8003382 <_free_r+0x4a>
 800338c:	6819      	ldr	r1, [r3, #0]
 800338e:	1858      	adds	r0, r3, r1
 8003390:	42a0      	cmp	r0, r4
 8003392:	d10b      	bne.n	80033ac <_free_r+0x74>
 8003394:	6820      	ldr	r0, [r4, #0]
 8003396:	4401      	add	r1, r0
 8003398:	1858      	adds	r0, r3, r1
 800339a:	4282      	cmp	r2, r0
 800339c:	6019      	str	r1, [r3, #0]
 800339e:	d1dd      	bne.n	800335c <_free_r+0x24>
 80033a0:	6810      	ldr	r0, [r2, #0]
 80033a2:	6852      	ldr	r2, [r2, #4]
 80033a4:	605a      	str	r2, [r3, #4]
 80033a6:	4401      	add	r1, r0
 80033a8:	6019      	str	r1, [r3, #0]
 80033aa:	e7d7      	b.n	800335c <_free_r+0x24>
 80033ac:	d902      	bls.n	80033b4 <_free_r+0x7c>
 80033ae:	230c      	movs	r3, #12
 80033b0:	602b      	str	r3, [r5, #0]
 80033b2:	e7d3      	b.n	800335c <_free_r+0x24>
 80033b4:	6820      	ldr	r0, [r4, #0]
 80033b6:	1821      	adds	r1, r4, r0
 80033b8:	428a      	cmp	r2, r1
 80033ba:	bf04      	itt	eq
 80033bc:	6811      	ldreq	r1, [r2, #0]
 80033be:	6852      	ldreq	r2, [r2, #4]
 80033c0:	6062      	str	r2, [r4, #4]
 80033c2:	bf04      	itt	eq
 80033c4:	1809      	addeq	r1, r1, r0
 80033c6:	6021      	streq	r1, [r4, #0]
 80033c8:	605c      	str	r4, [r3, #4]
 80033ca:	e7c7      	b.n	800335c <_free_r+0x24>
 80033cc:	bd38      	pop	{r3, r4, r5, pc}
 80033ce:	bf00      	nop
 80033d0:	200004b8 	.word	0x200004b8

080033d4 <_malloc_r>:
 80033d4:	b570      	push	{r4, r5, r6, lr}
 80033d6:	1ccd      	adds	r5, r1, #3
 80033d8:	f025 0503 	bic.w	r5, r5, #3
 80033dc:	3508      	adds	r5, #8
 80033de:	2d0c      	cmp	r5, #12
 80033e0:	bf38      	it	cc
 80033e2:	250c      	movcc	r5, #12
 80033e4:	2d00      	cmp	r5, #0
 80033e6:	4606      	mov	r6, r0
 80033e8:	db01      	blt.n	80033ee <_malloc_r+0x1a>
 80033ea:	42a9      	cmp	r1, r5
 80033ec:	d903      	bls.n	80033f6 <_malloc_r+0x22>
 80033ee:	230c      	movs	r3, #12
 80033f0:	6033      	str	r3, [r6, #0]
 80033f2:	2000      	movs	r0, #0
 80033f4:	bd70      	pop	{r4, r5, r6, pc}
 80033f6:	f000 f87d 	bl	80034f4 <__malloc_lock>
 80033fa:	4a21      	ldr	r2, [pc, #132]	; (8003480 <_malloc_r+0xac>)
 80033fc:	6814      	ldr	r4, [r2, #0]
 80033fe:	4621      	mov	r1, r4
 8003400:	b991      	cbnz	r1, 8003428 <_malloc_r+0x54>
 8003402:	4c20      	ldr	r4, [pc, #128]	; (8003484 <_malloc_r+0xb0>)
 8003404:	6823      	ldr	r3, [r4, #0]
 8003406:	b91b      	cbnz	r3, 8003410 <_malloc_r+0x3c>
 8003408:	4630      	mov	r0, r6
 800340a:	f000 f863 	bl	80034d4 <_sbrk_r>
 800340e:	6020      	str	r0, [r4, #0]
 8003410:	4629      	mov	r1, r5
 8003412:	4630      	mov	r0, r6
 8003414:	f000 f85e 	bl	80034d4 <_sbrk_r>
 8003418:	1c43      	adds	r3, r0, #1
 800341a:	d124      	bne.n	8003466 <_malloc_r+0x92>
 800341c:	230c      	movs	r3, #12
 800341e:	6033      	str	r3, [r6, #0]
 8003420:	4630      	mov	r0, r6
 8003422:	f000 f868 	bl	80034f6 <__malloc_unlock>
 8003426:	e7e4      	b.n	80033f2 <_malloc_r+0x1e>
 8003428:	680b      	ldr	r3, [r1, #0]
 800342a:	1b5b      	subs	r3, r3, r5
 800342c:	d418      	bmi.n	8003460 <_malloc_r+0x8c>
 800342e:	2b0b      	cmp	r3, #11
 8003430:	d90f      	bls.n	8003452 <_malloc_r+0x7e>
 8003432:	600b      	str	r3, [r1, #0]
 8003434:	50cd      	str	r5, [r1, r3]
 8003436:	18cc      	adds	r4, r1, r3
 8003438:	4630      	mov	r0, r6
 800343a:	f000 f85c 	bl	80034f6 <__malloc_unlock>
 800343e:	f104 000b 	add.w	r0, r4, #11
 8003442:	1d23      	adds	r3, r4, #4
 8003444:	f020 0007 	bic.w	r0, r0, #7
 8003448:	1ac3      	subs	r3, r0, r3
 800344a:	d0d3      	beq.n	80033f4 <_malloc_r+0x20>
 800344c:	425a      	negs	r2, r3
 800344e:	50e2      	str	r2, [r4, r3]
 8003450:	e7d0      	b.n	80033f4 <_malloc_r+0x20>
 8003452:	428c      	cmp	r4, r1
 8003454:	684b      	ldr	r3, [r1, #4]
 8003456:	bf16      	itet	ne
 8003458:	6063      	strne	r3, [r4, #4]
 800345a:	6013      	streq	r3, [r2, #0]
 800345c:	460c      	movne	r4, r1
 800345e:	e7eb      	b.n	8003438 <_malloc_r+0x64>
 8003460:	460c      	mov	r4, r1
 8003462:	6849      	ldr	r1, [r1, #4]
 8003464:	e7cc      	b.n	8003400 <_malloc_r+0x2c>
 8003466:	1cc4      	adds	r4, r0, #3
 8003468:	f024 0403 	bic.w	r4, r4, #3
 800346c:	42a0      	cmp	r0, r4
 800346e:	d005      	beq.n	800347c <_malloc_r+0xa8>
 8003470:	1a21      	subs	r1, r4, r0
 8003472:	4630      	mov	r0, r6
 8003474:	f000 f82e 	bl	80034d4 <_sbrk_r>
 8003478:	3001      	adds	r0, #1
 800347a:	d0cf      	beq.n	800341c <_malloc_r+0x48>
 800347c:	6025      	str	r5, [r4, #0]
 800347e:	e7db      	b.n	8003438 <_malloc_r+0x64>
 8003480:	200004b8 	.word	0x200004b8
 8003484:	200004bc 	.word	0x200004bc

08003488 <_realloc_r>:
 8003488:	b5f8      	push	{r3, r4, r5, r6, r7, lr}
 800348a:	4607      	mov	r7, r0
 800348c:	4614      	mov	r4, r2
 800348e:	460e      	mov	r6, r1
 8003490:	b921      	cbnz	r1, 800349c <_realloc_r+0x14>
 8003492:	4611      	mov	r1, r2
 8003494:	e8bd 40f8 	ldmia.w	sp!, {r3, r4, r5, r6, r7, lr}
 8003498:	f7ff bf9c 	b.w	80033d4 <_malloc_r>
 800349c:	b922      	cbnz	r2, 80034a8 <_realloc_r+0x20>
 800349e:	f7ff ff4b 	bl	8003338 <_free_r>
 80034a2:	4625      	mov	r5, r4
 80034a4:	4628      	mov	r0, r5
 80034a6:	bdf8      	pop	{r3, r4, r5, r6, r7, pc}
 80034a8:	f000 f826 	bl	80034f8 <_malloc_usable_size_r>
 80034ac:	42a0      	cmp	r0, r4
 80034ae:	d20f      	bcs.n	80034d0 <_realloc_r+0x48>
 80034b0:	4621      	mov	r1, r4
 80034b2:	4638      	mov	r0, r7
 80034b4:	f7ff ff8e 	bl	80033d4 <_malloc_r>
 80034b8:	4605      	mov	r5, r0
 80034ba:	2800      	cmp	r0, #0
 80034bc:	d0f2      	beq.n	80034a4 <_realloc_r+0x1c>
 80034be:	4631      	mov	r1, r6
 80034c0:	4622      	mov	r2, r4
 80034c2:	f7ff ff15 	bl	80032f0 <memcpy>
 80034c6:	4631      	mov	r1, r6
 80034c8:	4638      	mov	r0, r7
 80034ca:	f7ff ff35 	bl	8003338 <_free_r>
 80034ce:	e7e9      	b.n	80034a4 <_realloc_r+0x1c>
 80034d0:	4635      	mov	r5, r6
 80034d2:	e7e7      	b.n	80034a4 <_realloc_r+0x1c>

080034d4 <_sbrk_r>:
 80034d4:	b538      	push	{r3, r4, r5, lr}
 80034d6:	4c06      	ldr	r4, [pc, #24]	; (80034f0 <_sbrk_r+0x1c>)
 80034d8:	2300      	movs	r3, #0
 80034da:	4605      	mov	r5, r0
 80034dc:	4608      	mov	r0, r1
 80034de:	6023      	str	r3, [r4, #0]
 80034e0:	f7fd fe5e 	bl	80011a0 <_sbrk>
 80034e4:	1c43      	adds	r3, r0, #1
 80034e6:	d102      	bne.n	80034ee <_sbrk_r+0x1a>
 80034e8:	6823      	ldr	r3, [r4, #0]
 80034ea:	b103      	cbz	r3, 80034ee <_sbrk_r+0x1a>
 80034ec:	602b      	str	r3, [r5, #0]
 80034ee:	bd38      	pop	{r3, r4, r5, pc}
 80034f0:	200006e8 	.word	0x200006e8

080034f4 <__malloc_lock>:
 80034f4:	4770      	bx	lr

080034f6 <__malloc_unlock>:
 80034f6:	4770      	bx	lr

080034f8 <_malloc_usable_size_r>:
 80034f8:	f851 3c04 	ldr.w	r3, [r1, #-4]
 80034fc:	1f18      	subs	r0, r3, #4
 80034fe:	2b00      	cmp	r3, #0
 8003500:	bfbc      	itt	lt
 8003502:	580b      	ldrlt	r3, [r1, r0]
 8003504:	18c0      	addlt	r0, r0, r3
 8003506:	4770      	bx	lr

08003508 <_init>:
 8003508:	b5f8      	push	{r3, r4, r5, r6, r7, lr}
 800350a:	bf00      	nop
 800350c:	bcf8      	pop	{r3, r4, r5, r6, r7}
 800350e:	bc08      	pop	{r3}
 8003510:	469e      	mov	lr, r3
 8003512:	4770      	bx	lr

08003514 <_fini>:
 8003514:	b5f8      	push	{r3, r4, r5, r6, r7, lr}
 8003516:	bf00      	nop
 8003518:	bcf8      	pop	{r3, r4, r5, r6, r7}
 800351a:	bc08      	pop	{r3}
 800351c:	469e      	mov	lr, r3
 800351e:	4770      	bx	lr
